(dp1
S'output'
p2
S''
sS'layer'
p3
S'/Users/mdipierro/web2py/applications/fmld/views/default/index.html'
p4
sS'code'
p5
S'response.write(\'<!DOCTYPE html>\\n<html lang="\', escape=False)\nresponse.write(T.accepted_language or \'en\')\nresponse.write(\'" class="no-js"><!-- no-js need it for modernzr -->\\n  <head>\\n    \\n    <meta charset="utf-8" />\\t  \\t\\n    <!-- www.phpied.com/conditional-comments-block-downloads/ -->\\n    <!--[if IE]><![endif]-->    \\n    <!-- Always force latest IE rendering engine \\n\\t (even in intranet) & Chrome Frame \\n\\t Remove this if you use the .htaccess -->\\n    <meta http-equiv="X-UA-Compatible" content="IE=edge,chrome=1">\\n    \\n    <title>\', escape=False)\nresponse.write(response.title or request.application)\nresponse.write(\'</title>\\n    \\n    <!-- http://dev.w3.org/html5/markup/meta.name.html -->\\n    <meta name="application-name" content="\', escape=False)\nresponse.write(request.application)\nresponse.write(\'" />\\t\\n    \\n    <!-- Speaking of Google, don\\\'t forget to set your site up: \\n\\t http://google.com/webmasters -->\\n    <meta name="google-site-verification" content="" />\\n    \\n    <!--  Mobile Viewport Fix\\n\\t  j.mp/mobileviewport & davidbcalhoun.com/2010/viewport-metatag \\n\\t  device-width: Occupy full width of the screen in its current orientation\\n\\t  initial-scale = 1.0 retains dimensions instead of zooming out if page height > device height\\n\\t  maximum-scale = 1.0 retains dimensions instead of zooming in if page width < device width\\n      -->\\n    <meta name="viewport" content="width=device-width; initial-scale=1.0; maximum-scale=1.0;">\\n    \\n    <!-- Place favicon.ico and apple-touch-icon.png in the root of your domain and delete these references -->\\n    <link rel="shortcut icon" href="\', escape=False)\nresponse.write(URL(request.application,\'static\',\'favicon.ico\'))\nresponse.write(\'" type="image/x-icon">\\n    <link rel="apple-touch-icon" href="\', escape=False)\nresponse.write(URL(request.application,\'static\',\'favicon.png\'))\nresponse.write(\'">\\n\\n    <!-- For the less-enabled mobile browsers like Opera Mini -->\\n    <link rel="stylesheet" media="handheld" href="\', escape=False)\nresponse.write(URL(\'static\',\'css/handheld.css\'))\nresponse.write(\'">\\n    \\n    <!-- All JavaScript at the bottom, except for Modernizr which enables HTML5 elements & feature detects -->\\n    <script src="\', escape=False)\nresponse.write(URL(request.application,\'static\',\'js/modernizr-1.6.min.js\'))\nresponse.write(\'"></script>\\n    \\n    \', escape=False)\n#------  require CSS and JS files for this page (read info in base.css) ------\nresponse.write(\'\\n    \', escape=False)\nresponse.files.append(URL(request.application,\'static\',\'css/base.css\'))\nresponse.write(\'\\n    \', escape=False)\nresponse.files.append(URL(request.application,\'static\',\'css/superfish.css\'))\nresponse.write(\'\\n    \', escape=False)\nresponse.files.append(URL(request.application,\'static\',\'js/superfish.js\'))\nresponse.write(\'\\n    \', escape=False)\n#------ include web2py specific js code (jquery, calendar, form stuff) ------\nresponse.write(\'\\n    \', escape=False)\nresponse.write(\'<!-- Grab Google CDN\\\'s jQuery. fall back to local if necessary -->\\n<script src="http://ajax.googleapis.com/ajax/libs/jquery/1.4.3/jquery.js"></script>\\n<script>!window.jQuery && document.write(unescape(\\\'%3Cscript src="\', escape=False)\nresponse.write(URL(\'static\',\'js/jquery.js\'))\nresponse.write(\'"%3E%3C/script%3E\\\'))</script>\\n\', escape=False)\nresponse.files.append(URL(\'static\',\'css/calendar.css\'))\nresponse.files.append(URL(\'static\',\'js/calendar.js\'))\nfor _item in response.meta or []:\n    response.write(\'\\n     <meta name="\', escape=False)\n    response.write(_item)\n    response.write(\'" content="\', escape=False)\n    response.write(response.meta[_item])\n    response.write(\'" />\', escape=False)\n    pass\nfor _k,_file in enumerate(response.files or []):\n    if _file in response.files[:_k]:\n        continue\n    _file0=_file.lower().split(\'?\')[0]\n    if _file0.endswith(\'.css\'):\n        response.write(\'\\n     <link href="\', escape=False)\n        response.write(_file)\n        response.write(\'" rel="stylesheet" type="text/css" />\', escape=False)\n    elif _file0.endswith(\'.js\'):\n        response.write(\'\\n     <script src="\', escape=False)\n        response.write(_file)\n        response.write(\'" type="text/javascript"></script>\', escape=False)\n        pass\n    pass\nresponse.write(\'\\n  \\n<script type="text/javascript"><!--\\nfunction popup(url) {\\n  newwindow=window.open(url,\\\'name\\\',\\\'height=400,width=600\\\');\\n  if (window.focus) newwindow.focus();\\n  return false;\\n}\\nfunction collapse(id) { jQuery(\\\'#\\\'+id).slideToggle(); }\\nfunction fade(id,value) { if(value>0) jQuery(\\\'#\\\'+id).hide().fadeIn(\\\'slow\\\'); else jQuery(\\\'#\\\'+id).show().fadeOut(\\\'slow\\\'); }\\nfunction ajax(u,s,t) {\\n    query = \\\'\\\';\\n    if (typeof s == "string") {\\n        d = jQuery(s).serialize();\\n        if(d){ query = d; }\\n    } else {\\n        pcs = [];\\n        for(i=0; i<s.length; i++) {\\n            q = jQuery("[name="+s[i]+"]").serialize();\\n            if(q){pcs.push(q);}\\n        }\\n        if (pcs.length>0){query = pcs.join("&");}\\n    }\\n    jQuery.ajax({type: "POST", url: u, data: query, success: function(msg) { if(t) { if(t==\\\':eval\\\') eval(msg); else jQuery("#" + t).html(msg); } } }); \\n}\\n\\nString.prototype.reverse = function () { return this.split(\\\'\\\').reverse().join(\\\'\\\');};\\nfunction web2py_ajax_init() {\\n  jQuery(\\\'.hidden\\\').hide();\\n  jQuery(\\\'.error\\\').hide().slideDown(\\\'slow\\\');\\n  jQuery(\\\'.flash\\\').click(function() { jQuery(this).fadeOut(\\\'slow\\\'); return false; });\\n  // jQuery(\\\'input[type=submit]\\\').click(function(){var t=jQuery(this);t.hide();t.after(\\\'<input class="submit_disabled" disabled="disabled" type="submit" name="\\\'+t.attr("name")+\\\'_dummy" value="\\\'+t.val()+\\\'">\\\')});\\n  jQuery(\\\'input.integer\\\').keyup(function(){this.value=this.value.reverse().replace(/[^0-9\\\\-]|\\\\-(?=.)/g,\\\'\\\').reverse();});\\n  jQuery(\\\'input.double,input.decimal\\\').keyup(function(){this.value=this.value.reverse().replace(/[^0-9\\\\-\\\\.]|[\\\\-](?=.)|[\\\\.](?=[0-9]*[\\\\.])/g,\\\'\\\').reverse();});\\n  jQuery("input[type=\\\'checkbox\\\'].delete").each(function(){jQuery(this).click(function() { if(this.checked) if(!confirm("\', escape=False)\nresponse.write(T(\'Sure you want to delete this object?\'))\nresponse.write(\'")) this.checked=false; });});\\n  try {jQuery("input.date").focus( function() {Calendar.setup({\\n     inputField:this.id, ifFormat:"\', escape=False)\nresponse.write(T(\'%Y-%m-%d\'))\nresponse.write(\'", showsTime:false\\n  }); }); } catch(e) {};\\n  try { jQuery("input.datetime").focus( function() {Calendar.setup({\\n     inputField:this.id, ifFormat:"\', escape=False)\nresponse.write(T(\'%Y-%m-%d %H:%M:%S\'))\nresponse.write(\'", showsTime: true,timeFormat: "24"\\n  }); }); } catch(e) {};\\n  try { jQuery("input.time").clockpick({\\n      starthour:0, endhour:23, showminutes:true, military:true\\n  }); } catch(e) {};\\n};\\n\\njQuery(document).ready(function() {   \\n   var flash = jQuery(\\\'.flash\\\');\\n   flash.hide();\\n   if(flash.html()) flash.slideDown();\\n   web2py_ajax_init();\\n});\\nfunction web2py_trap_form(action,target) {\\n   jQuery(\\\'#\\\'+target+\\\' form\\\').each(function(i){\\n      var form=jQuery(this);\\n      if(!form.hasClass(\\\'no_trap\\\'))\\n        form.submit(function(obj){\\n         jQuery(\\\'.flash\\\').hide().html(\\\'\\\');\\n         web2py_ajax_page(\\\'post\\\',action,form.serialize(),target);\\n         return false;\\n      });\\n   });\\n}\\nfunction web2py_ajax_page(method,action,data,target) {\\n  jQuery.ajax({\\\'type\\\':method,\\\'url\\\':action,\\\'data\\\':data,\\n    \\\'beforeSend\\\':function(xhr) {\\n      xhr.setRequestHeader(\\\'web2py-component-location\\\',document.location);\\n      xhr.setRequestHeader(\\\'web2py-component-element\\\',target);},\\n    \\\'complete\\\':function(xhr,text){\\n      var html=xhr.responseText;\\n      var content=xhr.getResponseHeader(\\\'web2py-component-content\\\'); \\n      var command=xhr.getResponseHeader(\\\'web2py-component-command\\\');\\n      var flash=xhr.getResponseHeader(\\\'web2py-component-flash\\\');\\n      var t = jQuery(\\\'#\\\'+target);\\n      if(content==\\\'prepend\\\') t.prepend(html); \\n      else if(content==\\\'append\\\') t.append(html);\\n      else if(content!=\\\'hide\\\') t.html(html);  \\n      web2py_trap_form(action,target);\\n      web2py_ajax_init();      \\n      if(command) eval(command);\\n      if(flash) jQuery(\\\'.flash\\\').html(flash).slideDown();\\n      }\\n    });\\n}\\nfunction web2py_component(action,target) {\\n    jQuery(document).ready(function(){ web2py_ajax_page(\\\'get\\\',action,null,target); });\\n}\\n//--></script>\\n\', escape=False)\nresponse.write(\'\\n\\n    \', escape=False)\n#using sidebars need to know what sidebar you want to use\n#prior of using it, because of static width size of content, you can use\n#left_sidebar, right_sidebar, both or none (False left and right)\nleft_sidebar_enabled = globals().get(\'left_sidebar_enabled\',False)\nright_sidebar_enabled = globals().get(\'right_sidebar_enabled\',False)\nif left_sidebar_enabled and right_sidebar_enabled: width_content=\'63%\'\nelif left_sidebar_enabled != right_sidebar_enabled: width_content=\'740px\'\nelse: width_content=\'100%\'\nif left_sidebar_enabled: left_sidebar_style = \'style="display: block;"\'\nelse: left_sidebar_style = \'style="display: none;"\'\nif right_sidebar_enabled: right_sidebar_style = \'style="display: block;"\'\nelse: right_sidebar_style = \'style="display: none;"\'\nstyle_content = \'style="width: %s"\' % width_content\nresponse.write(\'\\n  </head>\\n  \\n  <!-- paulirish.com/2008/conditional-stylesheets-vs-css-hacks-answer-neither/ -->\\t\\n  <!--[if lt IE 7 ]> <body class="ie6"> <![endif]-->\\n  <!--[if IE 7 ]>    <body class="ie7"> <![endif]-->\\n  <!--[if IE 8 ]>    <body class="ie8"> <![endif]-->\\n  <!--[if IE 9 ]>    <body class="ie9"> <![endif]-->\\n  <!--[if (gt IE 9)|!(IE)]><!--> <body> <!--<![endif]-->\\n    \\n    <div class="flash">\', escape=False)\nresponse.write(response.flash or \'\')\nresponse.write(\'</div> <!-- notification div -->\\n    \\n    <div id="container">\\t      \\t\\t      \\t\\n      \\n      <div id="wrapper">\\t\\t\\n\\t\\n\\t<div id="header"> <!-- header and login nav -->\\n\\t  \', escape=False)\nresponse.write(\' <!-- this is default header -->\\n\\t  \', escape=False)\ntry:\n    response.write(auth.navbar(action=URL(request.application,\'default\',\'user\')))\nexcept:pass\nresponse.write(\'\\t\\t          \\n\\t  <div id="logo"><!-- put your logo here --></div>\\n\\t  <div style="clear: both;"></div><!-- Clear the divs -->\\n\\t  \', escape=False)\nresponse.write(\'\\t\\t\\t\\t  \\t\\t\\t\\t\\t  \\n\\t</div><!-- header  -->\\n\\t\\n\\t<div id="statusbar"><!-- statusbar is menu zone -->\\n\\t  \', escape=False)\nresponse.write(\' <!-- this is default statusbar -->\\n\\t  \', escape=False)\n#------ superfish menu ------\nresponse.write(\'\\n\\t  \', escape=False)\nresponse.write(MENU(response.menu,_class=\'sf-menu\'))\nresponse.write(\'\\n\\t  <script type="text/javascript">\\n\\t    jQuery(document).ready(function(){\\n\\t    jQuery(\\\'ul.sf-menu\\\').superfish();});\\n\\t  </script>\\n\\t  <div style="clear: both;"></div><!-- Clear the divs -->\\t\\n\\t  \', escape=False)\nresponse.write(\'\\t\\t\\t\\t\\n\\t</div><!-- statusbar -->\\n\\t\\n\\t<div id="page"> <!-- Here my central body -->\\t  \\n\\n\\t  \', escape=False)\nif left_sidebar_enabled:\n    response.write(\'\\n          <div id="left_sidebar" \', escape=False)\n    response.write(XML(left_sidebar_style))\n    response.write(\' >\\n            <div style="padding: 4px;">\\n\\t      \', escape=False)\n    response.write(\'Content Left Sidebar\', escape=False)\n    response.write(\'\\t\\t  \\n            </div>\\n          </div><!-- left_sidebar -->\\n\\t  \', escape=False)\n    pass\nresponse.write(\'\\n\\n\\t  <!-- content -->\\n\\t  <div id="content" \', escape=False)\nresponse.write(XML(style_content))\nresponse.write(\' >\\n\\t    \', escape=False)\nresponse.write(\'\\n\\n<ul>\\n  \', escape=False)\nfor post in data:\n    response.write(\'\\n  <li>\\n    <div>\\n      <div class="picture">\\n        <img src="https://graph.facebook.com/\', escape=False)\n    response.write(post.from.id)\n    response.write(\'/picture" />\\n      </div>\\n      <div class="message">\\n        \', escape=False)\n    response.write(post.message)\n    response.write(\' : <span class="author">\', escape=False)\n    response.write(post.from.name)\n    response.write(\'</span>\\n      </div>\\n    </div>   \\n  </li>\\n  \', escape=False)\n    pass\nresponse.write(\'\\n</ul>\\n\', escape=False)\nresponse.write(\'\\t\\n\\t  </div>\\n\\t  <!-- content -->\\n\\n\\t  \', escape=False)\nif right_sidebar_enabled:\n    response.write(\'\\n          <div id="right_sidebar" \', escape=False)\n    response.write(XML(right_sidebar_style))\n    response.write(\' >\\n            <div style="padding: 4px;">\\n              \', escape=False)\n    response.write(\'Content Right Sidebar\', escape=False)\n    response.write(\'\\n            </div>\\n\\t  </div><!-- right_sidebar -->\\n          \', escape=False)\n    pass\nresponse.write(\'\\n\\n\\n\\t  <div style="clear: both;"></div><!-- Clear the divs -->\\n\\t  \\n\\t</div><!-- page -->\\t\\t\\t\\t\\t\\t\\t\\n\\t\\n\\t<div id="footer">\\n\\t  \', escape=False)\nresponse.write(\' <!-- this is default footer -->\\n\\t  <a href="http://www.web2py.com/" style="float: left; padding-right: 6px;">\\n\\t    <img src="\', escape=False)\nresponse.write(URL(request.application,\'static\',\'images/poweredby.png\'))\nresponse.write(\'"/>\\n\\t  </a>\\n\\t  \', escape=False)\nresponse.write(T(\'Copyright\'))\nresponse.write(\' &#169; 2010\\t\\t\\t\\t\\n\\t  <div style="clear: both;"></div><!-- Clear the divs -->\\n\\t  \', escape=False)\nresponse.write(\'\\n\\n\\t</div><!-- footer -->\\t\\t\\t\\n      </div><!-- wrapper -->\\n    </div><!-- container -->\\t\\t\\n    \\n    <!--[if lt IE 7 ]>\\n\\t<script src="\', escape=False)\nresponse.write(URL(\'static\',\'js/dd_belatedpng.js\'))\nresponse.write(\'"></script>\\n\\t<script> DD_belatedPNG.fix(\\\'img, .png_bg\\\'); //fix any <img> or .png_bg background-images </script>\\n\\t<![endif]-->\\n    \\n    <!-- asynchronous google analytics: mathiasbynens.be/notes/async-analytics-snippet \\n\\t change the UA-XXXXX-X to be your site\\\'s ID -->\\n    <!--   \\n\\t   <script>\\n\\t     var _gaq = [[\\\'_setAccount\\\', \\\'UA-XXXXX-X\\\'], [\\\'_trackPageview\\\']];\\n\\t     (function(d, t) {\\n\\t     var g = d.createElement(t),\\n\\t     s = d.getElementsByTagName(t)[0];\\n\\t     g.async = true;\\n\\t     g.src = \\\'//www.google-analytics.com/ga.js\\\';\\n\\t     s.parentNode.insertBefore(g, s);\\n\\t     })(document, \\\'script\\\');\\n\\t   </script>\\n\\t   -->    \\n  </body>\\n</html>\\n\', escape=False)'
p6
sS'snapshot'
p7
(dp8
S'exception'
p9
(dp10
S'__getslice__'
p11
S"<method-wrapper '__getslice__' of exceptions.SyntaxError object at 0x1086830>"
p12
sS'text'
p13
S"'    response.write(post.from.id)\\n'"
p14
sS'__str__'
p15
S"<method-wrapper '__str__' of exceptions.SyntaxError object at 0x1086830>"
p16
sS'__reduce__'
p17
S'<built-in method __reduce__ of exceptions.SyntaxError object at 0x1086830>'
p18
sS'__dict__'
p19
S'{}'
p20
sS'__init__'
p21
S"<method-wrapper '__init__' of exceptions.SyntaxError object at 0x1086830>"
p22
sS'__setattr__'
p23
S"<method-wrapper '__setattr__' of exceptions.SyntaxError object at 0x1086830>"
p24
sS'__reduce_ex__'
p25
S'<built-in method __reduce_ex__ of exceptions.SyntaxError object at 0x1086830>'
p26
sS'__new__'
p27
S'<built-in method __new__ of type object at 0xdc200>'
p28
sS'__class__'
p29
S"<type 'exceptions.SyntaxError'>"
p30
sS'filename'
p31
S"'/Users/mdipierro/web2py/applications/fmld/views/default/index.html'"
p32
sS'lineno'
p33
S'101'
p34
sS'msg'
p35
S"'invalid syntax'"
p36
sS'__doc__'
p37
S"'Invalid syntax.'"
p38
sS'__getitem__'
p39
S"<method-wrapper '__getitem__' of exceptions.SyntaxError object at 0x1086830>"
p40
sS'__setstate__'
p41
S'<built-in method __setstate__ of exceptions.SyntaxError object at 0x1086830>'
p42
sS'__getattribute__'
p43
S"<method-wrapper '__getattribute__' of exceptions.SyntaxError object at 0x1086830>"
p44
sS'print_file_and_line'
p45
S'None'
p46
sS'args'
p47
S"('invalid syntax', ('/Users/mdipierro/web2py/applications/fmld/views/default/index.html', 101, 28, '    response.write(post.from.id)\\n'))"
p48
sS'offset'
p49
S'28'
p50
sS'__delattr__'
p51
S"<method-wrapper '__delattr__' of exceptions.SyntaxError object at 0x1086830>"
p52
sS'__repr__'
p53
S"<method-wrapper '__repr__' of exceptions.SyntaxError object at 0x1086830>"
p54
sS'__hash__'
p55
S"<method-wrapper '__hash__' of exceptions.SyntaxError object at 0x1086830>"
p56
ssS'evalue'
p57
S'invalid syntax (index.html, line 101)'
p58
sS'request'
p59
(dp60
S'function'
p61
S"'index'"
p62
sS'body'
p63
S'<cStringIO.StringO object at 0x22adca0>'
p64
sS'wsgi'
p65
S"<Storage {'start_response': <function <lambda> a...ING': 'gzip,deflate', 'HTTP_KEEP_ALIVE': '115'}}>"
p66
sS'extension'
p67
S"'html'"
p68
sS'vars'
p69
S'<Storage {}>'
p70
sS'cid'
p71
S'None'
p72
sS'url'
p73
S'<gluon.html.XML object at 0x22adc90>'
p74
sg47
S'[]'
p75
sS'controller'
p76
S"'default'"
p77
sS'cookies'
p78
S"<SimpleCookie: session_id_a6='127-0-0-1-45a806dd...'127-0-0-1-0e22c263-6ab2-4417-82c7-b046f6fa0aea'>"
p79
sS'application'
p80
S"'fmld'"
p81
sS'ajax'
p82
S'False'
p83
sS'client'
p84
S"'127.0.0.1'"
p85
sS'env'
p86
S"<Storage {'http_user_agent': 'Mozilla/5.0 (Macin...te', 'query_string': '', 'wsgi_run_once': False}>"
p87
sS'raw_args'
p88
S'None'
p89
sS'get_vars'
p90
S'<Storage {}>'
p91
sS'folder'
p92
S"'/Users/mdipierro/web2py/applications/fmld/'"
p93
sS'now'
p94
S'datetime.datetime(2010, 11, 7, 10, 40, 23, 575342)'
p95
sS'post_vars'
p96
S'<Storage {}>'
p97
ssS'frames'
p98
(lp99
(dp100
S'file'
p101
S'/Users/mdipierro/web2py/gluon/restricted.py'
p102
sS'dump'
p103
(dp104
S'code'
p105
S'\'response.write(\\\'<!DOCTYPE html>\\\\n<html lang="\\\', ...t   -->    \\\\n  </body>\\\\n</html>\\\\n\\\', escape=False)\''
p106
sS'layer'
p107
S"'/Users/mdipierro/web2py/applications/fmld/views/default/index.html'"
p108
sS'global compile2'
p109
S'<function compile2 at 0x43f2f0>'
p110
sS'ccode'
p111
S'undefined'
p112
ssS'lnum'
p113
I186
sS'lines'
p114
(dp115
I181
S''
sI182
S'    try:'
p116
sI183
S'        if type(code) == types.CodeType:'
p117
sI184
S'            ccode = code'
p118
sI185
S'        else:'
p119
sI186
S'            ccode = compile2(code,layer)'
p120
sI187
S''
sI188
S'        exec ccode in environment'
p121
sI189
S'    except HTTP:'
p122
sI190
S'        raise'
p123
ssS'call'
p124
S'(code=\'response.write(\\\'<!DOCTYPE html>\\\\n<html lang="\\\', ...t   -->    \\\\n  </body>\\\\n</html>\\\\n\\\', escape=False)\', environment={\'A\': <class \'gluon.html.A\'>, \'Auth\': <class \'gluon.tools.Auth\'>, \'B\': <class \'gluon.html.B\'>, \'BEAUTIFY\': <class \'gluon.html.BEAUTIFY\'>, \'BODY\': <class \'gluon.html.BODY\'>, \'BR\': <class \'gluon.html.BR\'>, \'CENTER\': <class \'gluon.html.CENTER\'>, \'CLEANUP\': <class \'gluon.validators.CLEANUP\'>, \'CODE\': <class \'gluon.html.CODE\'>, \'CRYPT\': <class \'gluon.validators.CRYPT\'>, ...}, layer=\'/Users/mdipierro/web2py/applications/fmld/views/default/index.html\')'
p125
sS'func'
p126
S'restricted'
p127
sa(dp128
g101
S'/Users/mdipierro/web2py/gluon/restricted.py'
p129
sg103
(dp130
S'builtincompile'
p131
S'<built-in function compile>'
p132
sS'code'
p133
S'\'response.write(\\\'<!DOCTYPE html>\\\\n<html lang="\\\', ...t   -->    \\\\n  </body>\\\\n</html>\\\\n\\\', escape=False)\''
p134
sS'code.rstrip'
p135
S'<built-in method rstrip of str object at 0x18ade00>'
p136
sS').replace'
p137
g112
sS'layer'
p138
S"'/Users/mdipierro/web2py/applications/fmld/views/default/index.html'"
p139
ssg113
I173
sg114
(dp140
I168
S''
sI169
S'def compile2(code,layer):'
p141
sI170
S'    """'
p142
sI171
S"    The +'\\n' is necessary else compile fails when code ends in a comment."
p143
sI172
S'    """'
p144
sI173
S"    return compile(code.rstrip().replace('\\r\\n','\\n')+'\\n', layer, 'exec')"
p145
sI174
S''
sI175
S"def restricted(code, environment={}, layer='Unknown'):"
p146
sI176
S'    """'
p147
sI177
S'    runs code in environment and returns the output. if an exception occurs'
p148
ssg124
S'(code=\'response.write(\\\'<!DOCTYPE html>\\\\n<html lang="\\\', ...t   -->    \\\\n  </body>\\\\n</html>\\\\n\\\', escape=False)\', layer=\'/Users/mdipierro/web2py/applications/fmld/views/default/index.html\')'
p149
sg126
S'compile2'
p150
sasS'pyver'
p151
S'Python 2.5.4: /usr/bin/python2.5'
p152
sS'session'
p153
(dp154
S'auth'
p155
S'None'
p156
ssS'etype'
p157
S"<type 'exceptions.SyntaxError'>"
p158
sS'date'
p159
S'Sun Nov  7 10:40:23 2010'
p160
sS'response'
p161
(dp162
S'status'
p163
S'200'
p164
sg63
S'<cStringIO.StringO object at 0x22adc20>'
p165
sg78
S"<SimpleCookie: session_id_fmld='127-0-0-1-2c7331c2-262c-4a38-afd1-6b4744815110'>"
p166
sS'_vars'
p167
S'{\'data\': [{u\'created_time\': u\'2010-11-07T16:25:59+0000\', u\'from\': {u\'id\': u\'1101630078\', u\'name\': u\'John LaLiberte\'}, u\'id\': u\'1101630078_165627070124495\', u\'message\': u\'I\\u2019m so harlem eating but so starving, pockets full of fat like all I do is eat margarine\', u\'type\': u\'status\', u\'updated_time\': u\'2010-11-07T16:25:59+0000\'}, {u\'created_time\': u\'2010-11-07T13:07:52+0000\', u\'from\': {u\'id\': u\'100000483722011\', u\'name\': u"Mc\'Cy Maximillian John"}, u\'id\': u\'100000483722011_152622068115676\', u\'likes\': 4, u\'message\': u\'im so starving....feeds me anyone!!!\', u\'type\': u\'status\', u\'updated_time\': u\'2010-11-07T13:07:52+0000\'}, {u\'created_time\': u\'2010-11-07T09:32:05+0000\', u\'from\': {u\'id\': u\'1650263945\', u\'name\': u\'D.j. Borgstahl\'}, u\'id\': u\'1650263945_127646150625263\', u\'message\': u\'hate it when i have to cook and im so starving... wait 30 minutes for my fish fingers to cook >.<\', u\'type\': u\'status\', u\'updated_time\': u\'2010-11-07T10:37:43+0000\'}, {u\'attribution\': u\'Mobile Web\', u\'created_time\': u\'2010-11-07T07:52:39+0000\', u\'from\': {u\'id\': u\'100001065405668\', u\'name\': u\'Lhen Mendoza\'}, u\'id\': u\'100001065405668_159500824087813\', u\'likes\': 2, u\'message\': u\'Late lunch at tempura japanese resto  here in mall of asia 2gder wth my hubby! so starving... :(\', u\'type\': u\'status\', u\'updated_time\': u\'2010-11-07T10:52:10+0000\'}, {u\'created_time\': u\'2010-11-07T04:56:42+0000\', u\'from\': {u\'id\': u\'100001522535895\', u\'name\': u\'De Jay Jones\'}, u\'id\': u\'100001522535895_105846752818885\', u\'likes\': 2, u\'message\': u\'i just woke up and i am sooooo fucking hungry. i dunno why. i so starving!!!!!\', u\'type\': u\'status\', u\'updated_time\': u\'2010-11-07T16:29:14+0000\'}, {u\'created_time\': u\'2010-11-07T00:23:00+0000\', u\'from\': {u\'id\': u\'633484276\', u\'name\': u\'Bobby McPherson\'}, u\'id\': u\'633484276_139105022809178\', u\'message\': u\'So starving!!!\', u\'type\': u\'status\', u\'updated_time\': u\'2010-11-07T00:23:00+0000\'}, {u\'created_time\': u\'2010-11-06T22:32:17+0000\', u\'from\': {u\'id\': u\'1507135594\', u\'name\': u\'Alyssa Nieves\'}, u\'id\': u\'1507135594_159691090733261\', u\'message\': u\'IM SO BORED I WANTED TO GO TO NENES PARTY BUT ...STARVING AND NOBODY WANTS TO TAKE ME TO EAT ,,]:\', u\'type\': u\'status\', u\'updated_time\': u\'2010-11-06T22:52:30+0000\'}, {u\'created_time\': u\'2010-11-06T21:27:34+0000\', u\'from\': {u\'id\': u\'100000795769857\', u\'name\': u\'April Luke Helvie\'}, u\'id\': u\'100000795769857_109411669125046\', u\'message\': u\'Just got back from shopping with my mother.  G...tting ready to go out to eat - I am so starving!\', u\'type\': u\'status\', u\'updated_time\': u\'2010-11-06T21:27:34+0000\'}, {u\'attribution\': u\'KIN\', u\'created_time\': u\'2010-11-06T20:22:18+0000\', u\'from\': {u\'id\': u\'100000773998425\', u\'name\': u\'Anyssa Perez\'}, u\'id\': u\'100000773998425_169058999778745\', u\'message\': u\'omg im so starving right now...\', u\'type\': u\'status\', u\'updated_time\': u\'2010-11-06T20:22:18+0000\'}, {u\'created_time\': u\'2010-11-06T17:58:42+0000\', u\'from\': {u\'id\': u\'569154101\', u\'name\': u\'Kathryn Muns Lindsey\'}, u\'id\': u\'569154101_163080230392394\', u\'message\': u"Getting adjusted really helped.  We stopped at...I was starting to get shakey didn\'t help either.", u\'type\': u\'status\', u\'updated_time\': u\'2010-11-06T20:59:04+0000\'}, {u\'created_time\': u\'2010-11-06T17:43:57+0000\', u\'from\': {u\'id\': u\'1250978915\', u\'name\': u\'Michelle Middleton\'}, u\'id\': u\'1250978915_159862470715917\', u\'message\': u\'I cannot believe how much food my children eat...utes later its Mommy Im so starving!!! Hahahahah\', u\'type\': u\'status\', u\'updated_time\': u\'2010-11-06T17:43:57+0000\'}, {u\'created_time\': u\'2010-11-06T17:35:39+0000\', u\'from\': {u\'id\': u\'100001384440272\', u\'name\': u\'Bex Whiffin\'}, u\'id\': u\'100001384440272_144092888971197\', u\'message\': u\'is so starving i swear. nt ta worry doe just waiting 4 me chinese! yummy x\', u\'type\': u\'status\', u\'updated_time\': u\'2010-11-06T17:35:39+0000\'}, {u\'attribution\': u\'iPhone\', u\'created_time\': u\'2010-11-06T17:19:19+0000\', u\'from\': {u\'id\': u\'100001220273389\', u\'name\': u\'Dashae Dooley King\'}, u\'id\': u\'100001220273389_143791279001739\', u\'message\': u"Is so starving and does not know what see wants to eat ... It\'s very frustrating :|", u\'type\': u\'status\', u\'updated_time\': u\'2010-11-06T17:22:12+0000\'}, {u\'created_time\': u\'2010-11-06T11:27:20+0000\', u\'from\': {u\'id\': u\'627723669\', u\'name\': u\'Ahmad Zhafri\'}, u\'id\': u\'627723669_173583399319531\', u\'message\': u"I\'m so starving...", u\'type\': u\'status\', u\'updated_time\': u\'2010-11-06T16:30:05+0000\'}, {u\'attribution\': u\'Mobile Web\', u\'created_time\': u\'2010-11-06T05:08:09+0000\', u\'from\': {u\'id\': u\'100001478755528\', u\'name\': u\'Lupita Lara\'}, u\'id\': u\'100001478755528_160881700617746\', u\'likes\': 1, u\'message\': u\'379 more days brother! Go Outkasts kick that a...llies never been here before I am so starving :)\', u\'type\': u\'status\', u\'updated_time\': u\'2010-11-06T05:08:09+0000\'}, {u\'caption\': u\'www.theonion.com\', u\'created_time\': u\'2010-11-06T04:06:36+0000\', u\'description\': u"Oh, my God, I am so starving. I swear, if I do...g to eat in like two minutes, I am going to die.", u\'from\': {u\'id\': u\'100000542942915\', u\'name\': u\'Davide Marzoli\'}, u\'icon\': u\'http://b.static.ak.fbcdn.net/rsrc.php/zD/r/aS8ecmYRys0.gif\', u\'id\': u\'100000542942915_154342851275063\', u\'link\': u\'http://www.theonion.com/articles/i-am-so-starving-vs-i-am-so-starving,11541/\', u\'message\': u"Wow. This one just stops being funny at all by the end. It\'s like hitting a wall.", u\'name\': u\'I Am So Starving vs. I Am So Starving\', u\'picture\': u\'http://external.ak.fbcdn.net/safe_image.php?d=...F852%2Fonion_counterpoint15_jpg_250x1000_q85.jpg\', ...}, {u\'attribution\': u\'Android\', u\'created_time\': u\'2010-11-06T02:47:04+0000\', u\'from\': {u\'id\': u\'100000266725866\', u\'name\': u\'Chantel Rizzo\'}, u\'id\': u\'100000266725866_110279169038647\', u\'message\': u\'I am so starving.....\', u\'type\': u\'status\', u\'updated_time\': u\'2010-11-06T03:34:17+0000\'}, {u\'created_time\': u\'2010-11-06T01:56:30+0000\', u\'from\': {u\'id\': u\'100000056612780\', u\'name\': u\'Joanalyn Dela Cruz\'}, u\'id\': u\'100000056612780_171636069528789\', u\'message\': u\'im so starving...\', u\'type\': u\'status\', u\'updated_time\': u\'2010-11-06T01:56:30+0000\'}, {u\'attribution\': u\'Mobile Web\', u\'created_time\': u\'2010-11-06T00:50:59+0000\', u\'from\': {u\'id\': u\'1100413839\', u\'name\': u"Ash\'Leah Nicole Jackson"}, u\'id\': u\'1100413839_109458325786887\', u\'message\': u\'Whats for dinner. Im so starving right now.\', u\'type\': u\'status\', u\'updated_time\': u\'2010-11-06T00:50:59+0000\'}, {u\'attribution\': u\'Mobile Web\', u\'created_time\': u\'2010-11-06T00:32:26+0000\', u\'from\': {u\'id\': u\'100000333933026\', u\'name\': u\'Hanna Silfa\'}, u\'id\': u\'100000333933026_139712179410832\', u\'likes\': 1, u\'message\': u"On my way to church but I\'m so starving... ugggggg", u\'type\': u\'status\', u\'updated_time\': u\'2010-11-06T02:33:45+0000\'}, ...]}'
p168
sS'title'
p169
S"'fmld'"
p170
sS'session_file'
p171
S"<open file '/Users/mdipierro/web2py/applications...4a38-afd1-6b4744815110', mode 'rb+' at 0x10b7068>"
p172
sS'flash'
p173
S"''"
p174
sS'_custom_rollback'
p175
S'None'
p176
sS'session_id'
p177
S"'127-0-0-1-2c7331c2-262c-4a38-afd1-6b4744815110'"
p178
sS'headers'
p179
S"<Storage {'Expires': 'Sun, 07 Nov 2010 16:40:23 ...he, must-revalidate, post-check=0, pre-check=0'}>"
p180
sS'meta'
p181
S"<Storage {'keywords': 'web2py, python, framework... 'Web2py Enterprise Framework', 'author': 'you'}>"
p182
sS'session_filename'
p183
S"'/Users/mdipierro/web2py/applications/fmld/sessions/127-0-0-1-2c7331c2-262c-4a38-afd1-6b4744815110'"
p184
sS'postprocessing'
p185
S'[]'
p186
sS'menu'
p187
S"[(<lazyT 'Home'>, False, <gluon.html.XML object at 0x22f6d70>, []), (<lazyT 'This App'>, False, <gluon.html.XML object at 0x22f6e30>, [(<lazyT 'Controller'>, False, <gluon.html.XML object at 0x22f6e90>), (<lazyT 'View'>, False, <gluon.html.XML object at 0x22f6f30>), (<lazyT 'Layout'>, False, <gluon.html.XML object at 0x22f6f70>), (<lazyT 'Stylesheet'>, False, <gluon.html.XML object at 0x22f6fb0>), (<lazyT 'DB Model'>, False, <gluon.html.XML object at 0x22f6ff0>), (<lazyT 'Menu Model'>, False, <gluon.html.XML object at 0x230d070>), (<lazyT 'Database'>, False, <gluon.html.XML object at 0x230d090>), (<lazyT 'Errors'>, False, <gluon.html.XML object at 0x230d0f0>), (<lazyT 'About'>, False, <gluon.html.XML object at 0x230d130>)]), (<lazyT 'Resources'>, False, None, [(<lazyT 'Documentation'>, False, 'http://www.web2py.com/book', [(<lazyT 'Preface'>, False, 'http://www.web2py.com/book/default/chapter/00'), (<lazyT 'Introduction'>, False, 'http://www.web2py.com/book/default/chapter/01'), (<lazyT 'Python'>, False, 'http://www.web2py.com/book/default/chapter/02'), (<lazyT 'Overview'>, False, 'http://www.web2py.com/book/default/chapter/03'), (<lazyT 'The Core'>, False, 'http://www.web2py.com/book/default/chapter/04'), (<lazyT 'The Views'>, False, 'http://www.web2py.com/book/default/chapter/05'), (<lazyT 'Database'>, False, 'http://www.web2py.com/book/default/chapter/06'), (<lazyT 'Forms and Validators'>, False, 'http://www.web2py.com/book/default/chapter/07'), (<lazyT 'Access Control'>, False, 'http://www.web2py.com/book/default/chapter/08'), (<lazyT 'Services'>, False, 'http://www.web2py.com/book/default/chapter/09'), (<lazyT 'Ajax Recipes'>, False, 'http://www.web2py.com/book/default/chapter/10'), (<lazyT 'Deployment Recipes'>, False, 'http://www.web2py.com/book/default/chapter/11'), (<lazyT 'Other Recipes'>, False, 'http://www.web2py.com/book/default/chapter/12'), (<lazyT 'Buy this book'>, False, 'http://stores.lulu.com/web2py')]), (<lazyT 'Community'>, False, None, [(<lazyT 'Groups'>, False, 'http://www.web2py.com/examples/default/usergroups'), (<lazyT 'Twitter'>, False, 'http://twitter.com/web2py'), (<lazyT 'Live chat'>, False, 'http://mibbit.com/?channel=%23web2py&server=irc.mibbit.net'), (<lazyT 'User Voice'>, False, 'http://web2py.uservoice.com/')]), (<lazyT 'Web2py'>, False, 'http://www.web2py.com', [(<lazyT 'Download'>, False, 'http://www.web2py.com/examples/default/download'), (<lazyT 'Support'>, False, 'http://www.web2py.com/examples/default/support'), (<lazyT 'Quick Examples'>, False, 'http://web2py.com/examples/default/examples'), (<lazyT 'FAQ'>, False, 'http://web2py.com/AlterEgo'), (<lazyT 'Free Applications'>, False, 'http://web2py.com/appliances'), (<lazyT 'Plugins'>, False, 'http://web2py.com/plugins'), (<lazyT 'Recipes'>, False, 'http://web2pyslices.com/'), (<lazyT 'Demo'>, False, 'http://web2py.com/demo_admin'), (<lazyT 'Semantic'>, False, 'http://web2py.com/semantic'), (<lazyT 'Layouts'>, False, 'http://web2py.com/layouts'), (<lazyT 'Videos'>, False, 'http://www.web2py.com/examples/default/videos/')])])]"
p188
sS'_view_environment'
p189
S"{'A': <class 'gluon.html.A'>, 'Auth': <class 'gluon.tools.Auth'>, 'B': <class 'gluon.html.B'>, 'BEAUTIFY': <class 'gluon.html.BEAUTIFY'>, 'BODY': <class 'gluon.html.BODY'>, 'BR': <class 'gluon.html.BR'>, 'CENTER': <class 'gluon.html.CENTER'>, 'CLEANUP': <class 'gluon.validators.CLEANUP'>, 'CODE': <class 'gluon.html.CODE'>, 'CRYPT': <class 'gluon.validators.CRYPT'>, ...}"
p190
sS'subtitle'
p191
S"<lazyT 'customize me!'>"
p192
sS'session_id_name'
p193
S"'session_id_fmld'"
p194
sS'_custom_commit'
p195
S'None'
p196
sS'_caller'
p197
S'<function <lambda> at 0x10b1470>'
p198
sS'files'
p199
S'[]'
p200
sS'view'
p201
S"'default/index.html'"
p202
ssS'locals'
p203
(dp204
g3
S"'/Users/mdipierro/web2py/applications/fmld/views/default/index.html'"
p205
sg5
S'\'response.write(\\\'<!DOCTYPE html>\\\\n<html lang="\\\', ...t   -->    \\\\n  </body>\\\\n</html>\\\\n\\\', escape=False)\''
p206
sssS'traceback'
p207
S'Traceback (most recent call last):\n  File "/Users/mdipierro/web2py/gluon/restricted.py", line 186, in restricted\n    ccode = compile2(code,layer)\n  File "/Users/mdipierro/web2py/gluon/restricted.py", line 173, in compile2\n    return compile(code.rstrip().replace(\'\\r\\n\',\'\\n\')+\'\\n\', layer, \'exec\')\n  File "/Users/mdipierro/web2py/applications/fmld/views/default/index.html", line 101\n    response.write(post.from.id)\n                           ^\nSyntaxError: invalid syntax\n'
p208
s.