(dp1
S'output'
p2
S''
sS'layer'
p3
S'/Users/mdipierro/web2py/applications/fmld/controllers/default.py'
p4
sS'code'
p5
S'# -*- coding: utf-8 -*- \n\n#########################################################################\n## This is a samples controller\n## - index is the default action of any application\n## - user is required for authentication and authorization\n## - download is for downloading files uploaded in the db (does streaming)\n## - call exposes all registered services (none by default)\n#########################################################################\n\ndef index():\n    from gluon.contrib.simplejson import loads\n    endpoint=\'http://graph.facebook.com/search?q="so%20starving&type=post\'\n    def get_data(): return loads(urllib.urlopen(endpoint).read())[\'data\']\n    data = cache.ram(fml_endpoint,get_data,30*60)\n    return dict(data=data)\n\ndef user():\n    """\n    exposes:\n    http://..../[app]/default/user/login \n    http://..../[app]/default/user/logout\n    http://..../[app]/default/user/register\n    http://..../[app]/default/user/profile\n    http://..../[app]/default/user/retrieve_password\n    http://..../[app]/default/user/change_password\n    use @auth.requires_login()\n        @auth.requires_membership(\'group name\')\n        @auth.requires_permission(\'read\',\'table name\',record_id)\n    to decorate functions that need access control\n    """\n    return dict(form=auth())\n\n\ndef download():\n    """\n    allows downloading of uploaded files\n    http://..../[app]/default/download/[filename]\n    """\n    return response.download(request,db)\n\n\ndef call():\n    """\n    exposes services. for example:\n    http://..../[app]/default/call/jsonrpc\n    decorate with @services.jsonrpc the functions to expose\n    supports xml, json, xmlrpc, jsonrpc, amfrpc, rss, csv\n    """\n    session.forget()\n    return service()\n\n\n\nresponse._vars=response._caller(index)\n'
p6
sS'snapshot'
p7
(dp8
S'exception'
p9
(dp10
S'__hash__'
p11
S"<method-wrapper '__hash__' of exceptions.NameError object at 0x10a03c8>"
p12
sS'__setattr__'
p13
S"<method-wrapper '__setattr__' of exceptions.NameError object at 0x10a03c8>"
p14
sS'__reduce_ex__'
p15
S'<built-in method __reduce_ex__ of exceptions.NameError object at 0x10a03c8>'
p16
sS'__getslice__'
p17
S"<method-wrapper '__getslice__' of exceptions.NameError object at 0x10a03c8>"
p18
sS'__getitem__'
p19
S"<method-wrapper '__getitem__' of exceptions.NameError object at 0x10a03c8>"
p20
sS'__setstate__'
p21
S'<built-in method __setstate__ of exceptions.NameError object at 0x10a03c8>'
p22
sS'__reduce__'
p23
S'<built-in method __reduce__ of exceptions.NameError object at 0x10a03c8>'
p24
sS'__str__'
p25
S"<method-wrapper '__str__' of exceptions.NameError object at 0x10a03c8>"
p26
sS'args'
p27
S'("global name \'fml_endpoint\' is not defined",)'
p28
sS'__getattribute__'
p29
S"<method-wrapper '__getattribute__' of exceptions.NameError object at 0x10a03c8>"
p30
sS'__class__'
p31
S"<type 'exceptions.NameError'>"
p32
sS'__delattr__'
p33
S"<method-wrapper '__delattr__' of exceptions.NameError object at 0x10a03c8>"
p34
sS'__repr__'
p35
S"<method-wrapper '__repr__' of exceptions.NameError object at 0x10a03c8>"
p36
sS'__dict__'
p37
S'{}'
p38
sS'__doc__'
p39
S"'Name not found globally.'"
p40
sS'__init__'
p41
S"<method-wrapper '__init__' of exceptions.NameError object at 0x10a03c8>"
p42
sS'__new__'
p43
S'<built-in method __new__ of type object at 0xdbfc0>'
p44
ssS'evalue'
p45
S"global name 'fml_endpoint' is not defined"
p46
sS'request'
p47
(dp48
S'function'
p49
S"'index'"
p50
sS'body'
p51
S'<cStringIO.StringO object at 0x22b1100>'
p52
sS'wsgi'
p53
S"<Storage {'start_response': <function <lambda> a...ING': 'gzip,deflate', 'HTTP_KEEP_ALIVE': '115'}}>"
p54
sS'extension'
p55
S"'html'"
p56
sS'vars'
p57
S'<Storage {}>'
p58
sS'cid'
p59
S'None'
p60
sS'url'
p61
S'<gluon.html.XML object at 0x22b1190>'
p62
sg27
S'[]'
p63
sS'controller'
p64
S"'default'"
p65
sS'cookies'
p66
S"<SimpleCookie: session_id_a6='127-0-0-1-45a806dd...'127-0-0-1-0e22c263-6ab2-4417-82c7-b046f6fa0aea'>"
p67
sS'application'
p68
S"'fmld'"
p69
sS'ajax'
p70
S'False'
p71
sS'client'
p72
S"'127.0.0.1'"
p73
sS'env'
p74
S"<Storage {'http_user_agent': 'Mozilla/5.0 (Macin...te', 'query_string': '', 'wsgi_run_once': False}>"
p75
sS'raw_args'
p76
S'None'
p77
sS'get_vars'
p78
S'<Storage {}>'
p79
sS'folder'
p80
S"'/Users/mdipierro/web2py/applications/fmld/'"
p81
sS'now'
p82
S'datetime.datetime(2010, 11, 7, 10, 37, 25, 483734)'
p83
sS'post_vars'
p84
S'<Storage {}>'
p85
ssS'frames'
p86
(lp87
(dp88
S'file'
p89
S'/Users/mdipierro/web2py/gluon/restricted.py'
p90
sS'dump'
p91
(dp92
S'environment'
p93
S"{'A': <class 'gluon.html.A'>, 'Auth': <class 'gluon.tools.Auth'>, 'B': <class 'gluon.html.B'>, 'BEAUTIFY': <class 'gluon.html.BEAUTIFY'>, 'BODY': <class 'gluon.html.BODY'>, 'BR': <class 'gluon.html.BR'>, 'CENTER': <class 'gluon.html.CENTER'>, 'CLEANUP': <class 'gluon.validators.CLEANUP'>, 'CODE': <class 'gluon.html.CODE'>, 'CRYPT': <class 'gluon.validators.CRYPT'>, ...}"
p94
sS'ccode'
p95
S'<code object <module> at 0x17e4b18, file "/Users...plications/fmld/controllers/default.py", line 11>'
p96
ssS'lnum'
p97
I188
sS'lines'
p98
(dp99
I192
S'        # XXX Show exception in Wing IDE if running in debugger'
p100
sI183
S'        if type(code) == types.CodeType:'
p101
sI184
S'            ccode = code'
p102
sI185
S'        else:'
p103
sI186
S'            ccode = compile2(code,layer)'
p104
sI187
S''
sI188
S'        exec ccode in environment'
p105
sI189
S'    except HTTP:'
p106
sI190
S'        raise'
p107
sI191
S'    except Exception:'
p108
ssS'call'
p109
S"(code='# -*- coding: utf-8 -*- \\n\\n######################...vice()\\n\\n\\n\\nresponse._vars=response._caller(index)\\n', environment={'A': <class 'gluon.html.A'>, 'Auth': <class 'gluon.tools.Auth'>, 'B': <class 'gluon.html.B'>, 'BEAUTIFY': <class 'gluon.html.BEAUTIFY'>, 'BODY': <class 'gluon.html.BODY'>, 'BR': <class 'gluon.html.BR'>, 'CENTER': <class 'gluon.html.CENTER'>, 'CLEANUP': <class 'gluon.validators.CLEANUP'>, 'CODE': <class 'gluon.html.CODE'>, 'CRYPT': <class 'gluon.validators.CRYPT'>, ...}, layer='/Users/mdipierro/web2py/applications/fmld/controllers/default.py')"
p110
sS'func'
p111
S'restricted'
p112
sa(dp113
g89
S'/Users/mdipierro/web2py/applications/fmld/controllers/default.py'
p114
sg91
(dp115
sg97
I55
sg98
(dp116
I44
S'    """'
p117
sI45
S'    exposes services. for example:'
p118
sI46
S'    http://..../[app]/default/call/jsonrpc'
p119
sI47
S'    decorate with @services.jsonrpc the functions to expose'
p120
sI48
S'    supports xml, json, xmlrpc, jsonrpc, amfrpc, rss, csv'
p121
sI49
S'    """'
p122
sI50
S'    session.forget()'
p123
sI51
S'    return service()'
p124
sI52
S''
sI53
S''
ssg109
S'()'
p125
sg111
S'<module>'
p126
sa(dp127
g89
S'/Users/mdipierro/web2py/gluon/globals.py'
p128
sg91
(dp129
S'self'
p130
S'undefined'
p131
sS'f'
S'<function index at 0x1082330>'
p132
ssg97
I96
sg98
(dp133
I96
S'        self._caller = lambda f: f()'
p134
sI97
S'        self._view_environment = None'
p135
sI98
S'        self._custom_commit = None'
p136
sI99
S'        self._custom_rollback = None'
p137
sI100
S''
sI91
S"        self.flash = ''           # used by the default view layout"
p138
sI92
S'        self.meta = Storage()     # used by web2py_ajax.html'
p139
sI93
S'        self.menu = []            # used by the default view layout'
p140
sI94
S'        self.files = []           # used by web2py_ajax.html'
p141
sI95
S'        self._vars = None'
p142
ssg109
S'(f=<function index at 0x1082330>)'
p143
sg111
S'<lambda>'
p144
sa(dp145
g89
S'/Users/mdipierro/web2py/applications/fmld/controllers/default.py'
p146
sg91
(dp147
S'fml_endpoint'
p148
g131
sS'global cache'
p149
S'<gluon.cache.Cache object at 0x17e5490>'
p150
sS'data'
p151
g131
sS'cache.ram'
p152
S'<gluon.cache.CacheInRam object at 0x17e55d0>'
p153
sS'get_data'
p154
S'<function get_data at 0x10823f0>'
p155
ssg97
I15
sg98
(dp156
I10
S''
sI11
S'def index():'
p157
sI12
S'    from gluon.contrib.simplejson import loads'
p158
sI13
S'    endpoint=\'http://graph.facebook.com/search?q="so%20starving&type=post\''
p159
sI14
S"    def get_data(): return loads(urllib.urlopen(endpoint).read())['data']"
p160
sI15
S'    data = cache.ram(fml_endpoint,get_data,30*60)'
p161
sI16
S'    return dict(data=data)'
p162
sI17
S''
sI18
S'def user():'
p163
sI19
S'    """'
p164
ssg109
S'()'
p165
sg111
S'index'
p166
sasS'pyver'
p167
S'Python 2.5.4: /usr/bin/python2.5'
p168
sS'session'
p169
(dp170
S'auth'
p171
S'None'
p172
ssS'etype'
p173
S"<type 'exceptions.NameError'>"
p174
sS'date'
p175
S'Sun Nov  7 10:37:25 2010'
p176
sS'response'
p177
(dp178
S'status'
p179
S'200'
p180
sg51
S'<cStringIO.StringO object at 0x17dae80>'
p181
sg66
S"<SimpleCookie: session_id_fmld='127-0-0-1-5b543324-38b4-44e8-bd73-cc118a634912'>"
p182
sS'_vars'
p183
S'None'
p184
sS'title'
p185
S"'fmld'"
p186
sS'menu'
p187
S"[(<lazyT 'Home'>, False, <gluon.html.XML object at 0x22f9eb0>, []), (<lazyT 'This App'>, False, <gluon.html.XML object at 0x22f9830>, [(<lazyT 'Controller'>, False, <gluon.html.XML object at 0x22f98d0>), (<lazyT 'View'>, False, <gluon.html.XML object at 0x22f97d0>), (<lazyT 'Layout'>, False, <gluon.html.XML object at 0x22f9e90>), (<lazyT 'Stylesheet'>, False, <gluon.html.XML object at 0x22f9510>), (<lazyT 'DB Model'>, False, <gluon.html.XML object at 0x22f9750>), (<lazyT 'Menu Model'>, False, <gluon.html.XML object at 0x22f9690>), (<lazyT 'Database'>, False, <gluon.html.XML object at 0x22f9650>), (<lazyT 'Errors'>, False, <gluon.html.XML object at 0x22f96d0>), (<lazyT 'About'>, False, <gluon.html.XML object at 0x22f95b0>)]), (<lazyT 'Resources'>, False, None, [(<lazyT 'Documentation'>, False, 'http://www.web2py.com/book', [(<lazyT 'Preface'>, False, 'http://www.web2py.com/book/default/chapter/00'), (<lazyT 'Introduction'>, False, 'http://www.web2py.com/book/default/chapter/01'), (<lazyT 'Python'>, False, 'http://www.web2py.com/book/default/chapter/02'), (<lazyT 'Overview'>, False, 'http://www.web2py.com/book/default/chapter/03'), (<lazyT 'The Core'>, False, 'http://www.web2py.com/book/default/chapter/04'), (<lazyT 'The Views'>, False, 'http://www.web2py.com/book/default/chapter/05'), (<lazyT 'Database'>, False, 'http://www.web2py.com/book/default/chapter/06'), (<lazyT 'Forms and Validators'>, False, 'http://www.web2py.com/book/default/chapter/07'), (<lazyT 'Access Control'>, False, 'http://www.web2py.com/book/default/chapter/08'), (<lazyT 'Services'>, False, 'http://www.web2py.com/book/default/chapter/09'), (<lazyT 'Ajax Recipes'>, False, 'http://www.web2py.com/book/default/chapter/10'), (<lazyT 'Deployment Recipes'>, False, 'http://www.web2py.com/book/default/chapter/11'), (<lazyT 'Other Recipes'>, False, 'http://www.web2py.com/book/default/chapter/12'), (<lazyT 'Buy this book'>, False, 'http://stores.lulu.com/web2py')]), (<lazyT 'Community'>, False, None, [(<lazyT 'Groups'>, False, 'http://www.web2py.com/examples/default/usergroups'), (<lazyT 'Twitter'>, False, 'http://twitter.com/web2py'), (<lazyT 'Live chat'>, False, 'http://mibbit.com/?channel=%23web2py&server=irc.mibbit.net'), (<lazyT 'User Voice'>, False, 'http://web2py.uservoice.com/')]), (<lazyT 'Web2py'>, False, 'http://www.web2py.com', [(<lazyT 'Download'>, False, 'http://www.web2py.com/examples/default/download'), (<lazyT 'Support'>, False, 'http://www.web2py.com/examples/default/support'), (<lazyT 'Quick Examples'>, False, 'http://web2py.com/examples/default/examples'), (<lazyT 'FAQ'>, False, 'http://web2py.com/AlterEgo'), (<lazyT 'Free Applications'>, False, 'http://web2py.com/appliances'), (<lazyT 'Plugins'>, False, 'http://web2py.com/plugins'), (<lazyT 'Recipes'>, False, 'http://web2pyslices.com/'), (<lazyT 'Demo'>, False, 'http://web2py.com/demo_admin'), (<lazyT 'Semantic'>, False, 'http://web2py.com/semantic'), (<lazyT 'Layouts'>, False, 'http://web2py.com/layouts'), (<lazyT 'Videos'>, False, 'http://www.web2py.com/examples/default/videos/')])])]"
p188
sS'flash'
p189
S"''"
p190
sS'session_new'
p191
S'True'
p192
sS'_custom_rollback'
p193
S'None'
p194
sS'session_id'
p195
S"'127-0-0-1-5b543324-38b4-44e8-bd73-cc118a634912'"
p196
sS'headers'
p197
S"<Storage {'Expires': 'Sun, 07 Nov 2010 16:37:25 ...he, must-revalidate, post-check=0, pre-check=0'}>"
p198
sS'meta'
p199
S"<Storage {'keywords': 'web2py, python, framework... 'Web2py Enterprise Framework', 'author': 'you'}>"
p200
sS'session_filename'
p201
S"'/Users/mdipierro/web2py/applications/fmld/sessions/127-0-0-1-5b543324-38b4-44e8-bd73-cc118a634912'"
p202
sS'postprocessing'
p203
S'[]'
p204
sS'_caller'
p205
S'<function <lambda> at 0x1082730>'
p206
sS'_view_environment'
p207
S"{'A': <class 'gluon.html.A'>, 'Auth': <class 'gluon.tools.Auth'>, 'B': <class 'gluon.html.B'>, 'BEAUTIFY': <class 'gluon.html.BEAUTIFY'>, 'BODY': <class 'gluon.html.BODY'>, 'BR': <class 'gluon.html.BR'>, 'CENTER': <class 'gluon.html.CENTER'>, 'CLEANUP': <class 'gluon.validators.CLEANUP'>, 'CODE': <class 'gluon.html.CODE'>, 'CRYPT': <class 'gluon.validators.CRYPT'>, ...}"
p208
sS'subtitle'
p209
S"<lazyT 'customize me!'>"
p210
sS'session_id_name'
p211
S"'session_id_fmld'"
p212
sS'_custom_commit'
p213
S'None'
p214
sS'files'
p215
S'[]'
p216
sS'view'
p217
S"'default/index.html'"
p218
ssS'locals'
p219
(dp220
S'loads'
p221
S'<function loads at 0x594fb0>'
p222
sS'get_data'
p223
S'<function get_data at 0x10823f0>'
p224
sS'endpoint'
p225
S'\'http://graph.facebook.com/search?q="so%20starving&type=post\''
p226
sssS'traceback'
p227
S'Traceback (most recent call last):\n  File "/Users/mdipierro/web2py/gluon/restricted.py", line 188, in restricted\n    exec ccode in environment\n  File "/Users/mdipierro/web2py/applications/fmld/controllers/default.py", line 55, in <module>\n  File "/Users/mdipierro/web2py/gluon/globals.py", line 96, in <lambda>\n    self._caller = lambda f: f()\n  File "/Users/mdipierro/web2py/applications/fmld/controllers/default.py", line 15, in index\n    data = cache.ram(fml_endpoint,get_data,30*60)\nNameError: global name \'fml_endpoint\' is not defined\n'
p228
s.