(dp1
S'output'
p2
S''
sS'layer'
p3
S'/Users/mdipierro/web2py/applications/fmld/controllers/default.py'
p4
sS'code'
p5
S'# -*- coding: utf-8 -*- \n\n#########################################################################\n## This is a samples controller\n## - index is the default action of any application\n## - user is required for authentication and authorization\n## - download is for downloading files uploaded in the db (does streaming)\n## - call exposes all registered services (none by default)\n#########################################################################\n\ndef index():\n    from gluon.contrib.simplejson import loads\n    endpoint=\'http://graph.facebook.com/search?q="so%20starving&type=post\'\n    def get_data(): return loads(urllib.urlopen(endpoint).read())[\'data\']\n    data = cache.ram(endpoint,get_data,30*60)\n    return dict(data=data)\n\ndef user():\n    """\n    exposes:\n    http://..../[app]/default/user/login \n    http://..../[app]/default/user/logout\n    http://..../[app]/default/user/register\n    http://..../[app]/default/user/profile\n    http://..../[app]/default/user/retrieve_password\n    http://..../[app]/default/user/change_password\n    use @auth.requires_login()\n        @auth.requires_membership(\'group name\')\n        @auth.requires_permission(\'read\',\'table name\',record_id)\n    to decorate functions that need access control\n    """\n    return dict(form=auth())\n\n\ndef download():\n    """\n    allows downloading of uploaded files\n    http://..../[app]/default/download/[filename]\n    """\n    return response.download(request,db)\n\n\ndef call():\n    """\n    exposes services. for example:\n    http://..../[app]/default/call/jsonrpc\n    decorate with @services.jsonrpc the functions to expose\n    supports xml, json, xmlrpc, jsonrpc, amfrpc, rss, csv\n    """\n    session.forget()\n    return service()\n\n\n\nresponse._vars=response._caller(index)\n'
p6
sS'snapshot'
p7
(dp8
S'exception'
p9
(dp10
S'__hash__'
p11
S"<method-wrapper '__hash__' of exceptions.NameError object at 0x25e2300>"
p12
sS'__setattr__'
p13
S"<method-wrapper '__setattr__' of exceptions.NameError object at 0x25e2300>"
p14
sS'__reduce_ex__'
p15
S'<built-in method __reduce_ex__ of exceptions.NameError object at 0x25e2300>'
p16
sS'__getslice__'
p17
S"<method-wrapper '__getslice__' of exceptions.NameError object at 0x25e2300>"
p18
sS'__getitem__'
p19
S"<method-wrapper '__getitem__' of exceptions.NameError object at 0x25e2300>"
p20
sS'__setstate__'
p21
S'<built-in method __setstate__ of exceptions.NameError object at 0x25e2300>'
p22
sS'__reduce__'
p23
S'<built-in method __reduce__ of exceptions.NameError object at 0x25e2300>'
p24
sS'__str__'
p25
S"<method-wrapper '__str__' of exceptions.NameError object at 0x25e2300>"
p26
sS'args'
p27
S'("global name \'urllib\' is not defined",)'
p28
sS'__getattribute__'
p29
S"<method-wrapper '__getattribute__' of exceptions.NameError object at 0x25e2300>"
p30
sS'__class__'
p31
S"<type 'exceptions.NameError'>"
p32
sS'__delattr__'
p33
S"<method-wrapper '__delattr__' of exceptions.NameError object at 0x25e2300>"
p34
sS'__repr__'
p35
S"<method-wrapper '__repr__' of exceptions.NameError object at 0x25e2300>"
p36
sS'__dict__'
p37
S'{}'
p38
sS'__doc__'
p39
S"'Name not found globally.'"
p40
sS'__init__'
p41
S"<method-wrapper '__init__' of exceptions.NameError object at 0x25e2300>"
p42
sS'__new__'
p43
S'<built-in method __new__ of type object at 0xdbfc0>'
p44
ssS'evalue'
p45
S"global name 'urllib' is not defined"
p46
sS'request'
p47
(dp48
S'function'
p49
S"'index'"
p50
sS'body'
p51
S'<cStringIO.StringO object at 0x25cee40>'
p52
sS'wsgi'
p53
S"<Storage {'start_response': <function <lambda> a...ING': 'gzip,deflate', 'HTTP_KEEP_ALIVE': '115'}}>"
p54
sS'extension'
p55
S"'html'"
p56
sS'vars'
p57
S'<Storage {}>'
p58
sS'cid'
p59
S'None'
p60
sS'url'
p61
S'<gluon.html.XML object at 0x2303e50>'
p62
sg27
S'[]'
p63
sS'controller'
p64
S"'default'"
p65
sS'cookies'
p66
S"<SimpleCookie: session_id_a6='127-0-0-1-45a806dd...'127-0-0-1-0e22c263-6ab2-4417-82c7-b046f6fa0aea'>"
p67
sS'application'
p68
S"'fmld'"
p69
sS'ajax'
p70
S'False'
p71
sS'client'
p72
S"'127.0.0.1'"
p73
sS'env'
p74
S"<Storage {'http_user_agent': 'Mozilla/5.0 (Macin...te', 'query_string': '', 'wsgi_run_once': False}>"
p75
sS'raw_args'
p76
S'None'
p77
sS'get_vars'
p78
S'<Storage {}>'
p79
sS'folder'
p80
S"'/Users/mdipierro/web2py/applications/fmld/'"
p81
sS'now'
p82
S'datetime.datetime(2010, 11, 7, 10, 37, 54, 376350)'
p83
sS'post_vars'
p84
S'<Storage {}>'
p85
ssS'frames'
p86
(lp87
(dp88
S'file'
p89
S'/Users/mdipierro/web2py/gluon/restricted.py'
p90
sS'dump'
p91
(dp92
S'environment'
p93
S"{'A': <class 'gluon.html.A'>, 'Auth': <class 'gluon.tools.Auth'>, 'B': <class 'gluon.html.B'>, 'BEAUTIFY': <class 'gluon.html.BEAUTIFY'>, 'BODY': <class 'gluon.html.BODY'>, 'BR': <class 'gluon.html.BR'>, 'CENTER': <class 'gluon.html.CENTER'>, 'CLEANUP': <class 'gluon.validators.CLEANUP'>, 'CODE': <class 'gluon.html.CODE'>, 'CRYPT': <class 'gluon.validators.CRYPT'>, ...}"
p94
sS'ccode'
p95
S'<code object <module> at 0x25d4b60, file "/Users...plications/fmld/controllers/default.py", line 11>'
p96
ssS'lnum'
p97
I188
sS'lines'
p98
(dp99
I192
S'        # XXX Show exception in Wing IDE if running in debugger'
p100
sI183
S'        if type(code) == types.CodeType:'
p101
sI184
S'            ccode = code'
p102
sI185
S'        else:'
p103
sI186
S'            ccode = compile2(code,layer)'
p104
sI187
S''
sI188
S'        exec ccode in environment'
p105
sI189
S'    except HTTP:'
p106
sI190
S'        raise'
p107
sI191
S'    except Exception:'
p108
ssS'call'
p109
S"(code='# -*- coding: utf-8 -*- \\n\\n######################...vice()\\n\\n\\n\\nresponse._vars=response._caller(index)\\n', environment={'A': <class 'gluon.html.A'>, 'Auth': <class 'gluon.tools.Auth'>, 'B': <class 'gluon.html.B'>, 'BEAUTIFY': <class 'gluon.html.BEAUTIFY'>, 'BODY': <class 'gluon.html.BODY'>, 'BR': <class 'gluon.html.BR'>, 'CENTER': <class 'gluon.html.CENTER'>, 'CLEANUP': <class 'gluon.validators.CLEANUP'>, 'CODE': <class 'gluon.html.CODE'>, 'CRYPT': <class 'gluon.validators.CRYPT'>, ...}, layer='/Users/mdipierro/web2py/applications/fmld/controllers/default.py')"
p110
sS'func'
p111
S'restricted'
p112
sa(dp113
g89
S'/Users/mdipierro/web2py/applications/fmld/controllers/default.py'
p114
sg91
(dp115
sg97
I55
sg98
(dp116
I44
S'    """'
p117
sI45
S'    exposes services. for example:'
p118
sI46
S'    http://..../[app]/default/call/jsonrpc'
p119
sI47
S'    decorate with @services.jsonrpc the functions to expose'
p120
sI48
S'    supports xml, json, xmlrpc, jsonrpc, amfrpc, rss, csv'
p121
sI49
S'    """'
p122
sI50
S'    session.forget()'
p123
sI51
S'    return service()'
p124
sI52
S''
sI53
S''
ssg109
S'()'
p125
sg111
S'<module>'
p126
sa(dp127
g89
S'/Users/mdipierro/web2py/gluon/globals.py'
p128
sg91
(dp129
S'self'
p130
S'undefined'
p131
sS'f'
S'<function index at 0x25d6ab0>'
p132
ssg97
I96
sg98
(dp133
I96
S'        self._caller = lambda f: f()'
p134
sI97
S'        self._view_environment = None'
p135
sI98
S'        self._custom_commit = None'
p136
sI99
S'        self._custom_rollback = None'
p137
sI100
S''
sI91
S"        self.flash = ''           # used by the default view layout"
p138
sI92
S'        self.meta = Storage()     # used by web2py_ajax.html'
p139
sI93
S'        self.menu = []            # used by the default view layout'
p140
sI94
S'        self.files = []           # used by web2py_ajax.html'
p141
sI95
S'        self._vars = None'
p142
ssg109
S'(f=<function index at 0x25d6ab0>)'
p143
sg111
S'<lambda>'
p144
sa(dp145
g89
S'/Users/mdipierro/web2py/applications/fmld/controllers/default.py'
p146
sg91
(dp147
S'endpoint'
p148
S'\'http://graph.facebook.com/search?q="so%20starving&type=post\''
p149
sS'global cache'
p150
S'<gluon.cache.Cache object at 0x25ced50>'
p151
sS'data'
p152
g131
sS'cache.ram'
p153
S'<gluon.cache.CacheInRam object at 0x25cea50>'
p154
sS'get_data'
p155
S'<function get_data at 0x25d6af0>'
p156
ssg97
I15
sg98
(dp157
I10
S''
sI11
S'def index():'
p158
sI12
S'    from gluon.contrib.simplejson import loads'
p159
sI13
S'    endpoint=\'http://graph.facebook.com/search?q="so%20starving&type=post\''
p160
sI14
S"    def get_data(): return loads(urllib.urlopen(endpoint).read())['data']"
p161
sI15
S'    data = cache.ram(endpoint,get_data,30*60)'
p162
sI16
S'    return dict(data=data)'
p163
sI17
S''
sI18
S'def user():'
p164
sI19
S'    """'
p165
ssg109
S'()'
p166
sg111
S'index'
p167
sa(dp168
g89
S'/Users/mdipierro/web2py/gluon/cache.py'
p169
sg91
(dp170
S'value'
p171
g131
sS'f'
S'<function get_data at 0x25d6af0>'
p172
ssg97
I184
sg98
(dp173
I179
S''
sI180
S'        if f is None:'
p174
sI181
S'            return None'
p175
sI182
S'        if item and (dt == None or item[0] > time.time() - dt):'
p176
sI183
S'            return item[1]'
p177
sI184
S'        value = f()'
p178
sI185
S''
sI186
S'        self.locker.acquire()'
p179
sI187
S'        self.storage[key] = (time.time(), value)'
p180
sI188
S"        self.storage[CacheAbstract.cache_stats_name]['misses'] += 1"
p181
ssg109
S'(self=<gluon.cache.CacheInRam object at 0x25cea50>, key=\'http://graph.facebook.com/search?q="so%20starving&type=post\', f=<function get_data at 0x25d6af0>, time_expire=1800)'
p182
sg111
S'__call__'
p183
sa(dp184
g89
S'/Users/mdipierro/web2py/applications/fmld/controllers/default.py'
p185
sg91
(dp186
S'loads'
p187
S'<function loads at 0x594fb0>'
p188
sS'get_data'
p189
g131
sS'endpoint'
p190
S'\'http://graph.facebook.com/search?q="so%20starving&type=post\''
p191
sS'urllib'
p192
g131
sS').read'
p193
g131
ssg97
I14
sg98
(dp194
I9
S'#########################################################################'
p195
sI10
S''
sI11
S'def index():'
p196
sI12
S'    from gluon.contrib.simplejson import loads'
p197
sI13
S'    endpoint=\'http://graph.facebook.com/search?q="so%20starving&type=post\''
p198
sI14
S"    def get_data(): return loads(urllib.urlopen(endpoint).read())['data']"
p199
sI15
S'    data = cache.ram(endpoint,get_data,30*60)'
p200
sI16
S'    return dict(data=data)'
p201
sI17
S''
sI18
S'def user():'
p202
ssg109
S'()'
p203
sg111
S'get_data'
p204
sasS'pyver'
p205
S'Python 2.5.4: /usr/bin/python2.5'
p206
sS'session'
p207
(dp208
S'auth'
p209
S'None'
p210
ssS'etype'
p211
S"<type 'exceptions.NameError'>"
p212
sS'date'
p213
S'Sun Nov  7 10:37:54 2010'
p214
sS'response'
p215
(dp216
S'status'
p217
S'200'
p218
sg51
S'<cStringIO.StringO object at 0x2303420>'
p219
sg66
S"<SimpleCookie: session_id_fmld='127-0-0-1-59d49e7e-f631-4134-82e3-e0879c3b1127'>"
p220
sS'_vars'
p221
S'None'
p222
sS'title'
p223
S"'fmld'"
p224
sS'menu'
p225
S"[(<lazyT 'Home'>, False, <gluon.html.XML object at 0x25d5950>, []), (<lazyT 'This App'>, False, <gluon.html.XML object at 0x25d5a50>, [(<lazyT 'Controller'>, False, <gluon.html.XML object at 0x25d50f0>), (<lazyT 'View'>, False, <gluon.html.XML object at 0x25d5110>), (<lazyT 'Layout'>, False, <gluon.html.XML object at 0x25d5170>), (<lazyT 'Stylesheet'>, False, <gluon.html.XML object at 0x25d5a90>), (<lazyT 'DB Model'>, False, <gluon.html.XML object at 0x25d5ad0>), (<lazyT 'Menu Model'>, False, <gluon.html.XML object at 0x25d5b30>), (<lazyT 'Database'>, False, <gluon.html.XML object at 0x25d5b50>), (<lazyT 'Errors'>, False, <gluon.html.XML object at 0x25d5b90>), (<lazyT 'About'>, False, <gluon.html.XML object at 0x25d5bd0>)]), (<lazyT 'Resources'>, False, None, [(<lazyT 'Documentation'>, False, 'http://www.web2py.com/book', [(<lazyT 'Preface'>, False, 'http://www.web2py.com/book/default/chapter/00'), (<lazyT 'Introduction'>, False, 'http://www.web2py.com/book/default/chapter/01'), (<lazyT 'Python'>, False, 'http://www.web2py.com/book/default/chapter/02'), (<lazyT 'Overview'>, False, 'http://www.web2py.com/book/default/chapter/03'), (<lazyT 'The Core'>, False, 'http://www.web2py.com/book/default/chapter/04'), (<lazyT 'The Views'>, False, 'http://www.web2py.com/book/default/chapter/05'), (<lazyT 'Database'>, False, 'http://www.web2py.com/book/default/chapter/06'), (<lazyT 'Forms and Validators'>, False, 'http://www.web2py.com/book/default/chapter/07'), (<lazyT 'Access Control'>, False, 'http://www.web2py.com/book/default/chapter/08'), (<lazyT 'Services'>, False, 'http://www.web2py.com/book/default/chapter/09'), (<lazyT 'Ajax Recipes'>, False, 'http://www.web2py.com/book/default/chapter/10'), (<lazyT 'Deployment Recipes'>, False, 'http://www.web2py.com/book/default/chapter/11'), (<lazyT 'Other Recipes'>, False, 'http://www.web2py.com/book/default/chapter/12'), (<lazyT 'Buy this book'>, False, 'http://stores.lulu.com/web2py')]), (<lazyT 'Community'>, False, None, [(<lazyT 'Groups'>, False, 'http://www.web2py.com/examples/default/usergroups'), (<lazyT 'Twitter'>, False, 'http://twitter.com/web2py'), (<lazyT 'Live chat'>, False, 'http://mibbit.com/?channel=%23web2py&server=irc.mibbit.net'), (<lazyT 'User Voice'>, False, 'http://web2py.uservoice.com/')]), (<lazyT 'Web2py'>, False, 'http://www.web2py.com', [(<lazyT 'Download'>, False, 'http://www.web2py.com/examples/default/download'), (<lazyT 'Support'>, False, 'http://www.web2py.com/examples/default/support'), (<lazyT 'Quick Examples'>, False, 'http://web2py.com/examples/default/examples'), (<lazyT 'FAQ'>, False, 'http://web2py.com/AlterEgo'), (<lazyT 'Free Applications'>, False, 'http://web2py.com/appliances'), (<lazyT 'Plugins'>, False, 'http://web2py.com/plugins'), (<lazyT 'Recipes'>, False, 'http://web2pyslices.com/'), (<lazyT 'Demo'>, False, 'http://web2py.com/demo_admin'), (<lazyT 'Semantic'>, False, 'http://web2py.com/semantic'), (<lazyT 'Layouts'>, False, 'http://web2py.com/layouts'), (<lazyT 'Videos'>, False, 'http://www.web2py.com/examples/default/videos/')])])]"
p226
sS'flash'
p227
S"''"
p228
sS'session_new'
p229
S'True'
p230
sS'_custom_rollback'
p231
S'None'
p232
sS'session_id'
p233
S"'127-0-0-1-59d49e7e-f631-4134-82e3-e0879c3b1127'"
p234
sS'headers'
p235
S"<Storage {'Expires': 'Sun, 07 Nov 2010 16:37:54 ...he, must-revalidate, post-check=0, pre-check=0'}>"
p236
sS'meta'
p237
S"<Storage {'keywords': 'web2py, python, framework... 'Web2py Enterprise Framework', 'author': 'you'}>"
p238
sS'session_filename'
p239
S"'/Users/mdipierro/web2py/applications/fmld/sessions/127-0-0-1-59d49e7e-f631-4134-82e3-e0879c3b1127'"
p240
sS'postprocessing'
p241
S'[]'
p242
sS'_caller'
p243
S'<function <lambda> at 0x25d6530>'
p244
sS'_view_environment'
p245
S"{'A': <class 'gluon.html.A'>, 'Auth': <class 'gluon.tools.Auth'>, 'B': <class 'gluon.html.B'>, 'BEAUTIFY': <class 'gluon.html.BEAUTIFY'>, 'BODY': <class 'gluon.html.BODY'>, 'BR': <class 'gluon.html.BR'>, 'CENTER': <class 'gluon.html.CENTER'>, 'CLEANUP': <class 'gluon.validators.CLEANUP'>, 'CODE': <class 'gluon.html.CODE'>, 'CRYPT': <class 'gluon.validators.CRYPT'>, ...}"
p246
sS'subtitle'
p247
S"<lazyT 'customize me!'>"
p248
sS'session_id_name'
p249
S"'session_id_fmld'"
p250
sS'_custom_commit'
p251
S'None'
p252
sS'files'
p253
S'[]'
p254
sS'view'
p255
S"'default/index.html'"
p256
ssS'locals'
p257
(dp258
S'loads'
p259
S'<function loads at 0x594fb0>'
p260
sS'endpoint'
p261
S'\'http://graph.facebook.com/search?q="so%20starving&type=post\''
p262
sssS'traceback'
p263
S'Traceback (most recent call last):\n  File "/Users/mdipierro/web2py/gluon/restricted.py", line 188, in restricted\n    exec ccode in environment\n  File "/Users/mdipierro/web2py/applications/fmld/controllers/default.py", line 55, in <module>\n  File "/Users/mdipierro/web2py/gluon/globals.py", line 96, in <lambda>\n    self._caller = lambda f: f()\n  File "/Users/mdipierro/web2py/applications/fmld/controllers/default.py", line 15, in index\n    data = cache.ram(endpoint,get_data,30*60)\n  File "/Users/mdipierro/web2py/gluon/cache.py", line 184, in __call__\n    value = f()\n  File "/Users/mdipierro/web2py/applications/fmld/controllers/default.py", line 14, in get_data\n    def get_data(): return loads(urllib.urlopen(endpoint).read())[\'data\']\nNameError: global name \'urllib\' is not defined\n'
p264
s.