(dp1
S'output'
p2
S''
sS'layer'
p3
S'/Users/mdipierro/web2py/applications/welcome/views/default/index.html'
p4
sS'code'
p5
S'left_sidebar_enabled=True\nresponse.write(\'\\n\', escape=False)\nright_sidebar_enabled=True\nresponse.write(\'\\n\', escape=False)\nresponse.write(\'<!DOCTYPE html>\\n<html lang="\', escape=False)\nresponse.write(T.accepted_language or \'en\')\nresponse.write(\'" class="no-js"><!-- no-js need it for modernzr -->\\n  <head>\\n    \\n    <meta charset="utf-8" />\\t  \\t\\n    <!-- www.phpied.com/conditional-comments-block-downloads/ -->\\n    <!--[if IE]><![endif]-->    \\n    <!-- Always force latest IE rendering engine \\n\\t (even in intranet) & Chrome Frame \\n\\t Remove this if you use the .htaccess -->\\n    <meta http-equiv="X-UA-Compatible" content="IE=edge,chrome=1">\\n    \\n    <title>\', escape=False)\nresponse.write(response.title or request.application)\nresponse.write(\'</title>\\n    \\n    <!-- http://dev.w3.org/html5/markup/meta.name.html -->\\n    <meta name="application-name" content="\', escape=False)\nresponse.write(request.application)\nresponse.write(\'" />\\t\\n    \\n    <!-- Speaking of Google, don\\\'t forget to set your site up: \\n\\t http://google.com/webmasters -->\\n    <meta name="google-site-verification" content="" />\\n    \\n    <!--  Mobile Viewport Fix\\n\\t  j.mp/mobileviewport & davidbcalhoun.com/2010/viewport-metatag \\n\\t  device-width: Occupy full width of the screen in its current orientation\\n\\t  initial-scale = 1.0 retains dimensions instead of zooming out if page height > device height\\n\\t  maximum-scale = 1.0 retains dimensions instead of zooming in if page width < device width\\n      -->\\n    <meta name="viewport" content="width=device-width; initial-scale=1.0; maximum-scale=1.0;">\\n    \\n    <!-- Place favicon.ico and apple-touch-icon.png in the root of your domain and delete these references -->\\n    <link rel="shortcut icon" href="\', escape=False)\nresponse.write(URL(request.application,\'static\',\'favicon.ico\'))\nresponse.write(\'" type="image/x-icon">\\n    <link rel="apple-touch-icon" href="\', escape=False)\nresponse.write(URL(request.application,\'static\',\'favicon.png\'))\nresponse.write(\'">\\n    \\n    <!-- All JavaScript at the bottom, except for Modernizr which enables HTML5 elements & feature detects -->\\n    <script src="\', escape=False)\nresponse.write(URL(request.application,\'static\',\'js/modernizr-1.6.min.js\'))\nresponse.write(\'"></script>\\n    \\n    \', escape=False)\n#------  require CSS and JS files for this page (read info in base.css) ------\nresponse.write(\'\\n    \', escape=False)\nresponse.files.append(URL(request.application,\'static\',\'css/base.css\'))\nresponse.write(\'\\n    \', escape=False)\nresponse.files.append(URL(request.application,\'static\',\'css/superfish.css\'))\nresponse.write(\'\\n    \', escape=False)\nresponse.files.append(URL(request.application,\'static\',\'js/superfish.js\'))\nresponse.write(\'\\n    \', escape=False)\n#------ include web2py specific js code (jquery, calendar, form stuff) ------\nresponse.write(\'\\n    \', escape=False)\nresponse.write(\'<!-- Grab Google CDN\\\'s jQuery. fall back to local if necessary -->\\n<script src="//ajax.googleapis.com/ajax/libs/jquery/1.4.2/jquery.js"></script>\\n<script>!window.jQuery && document.write(unescape(\\\'%3Cscript src="\', escape=False)\nresponse.write(URL(\'static\',\'js/jquery.js\'))\nresponse.write(\'"%3E%3C/script%3E\\\'))</script>\\n\', escape=False)\nresponse.files.append(URL(\'static\',\'css/calendar.css\'))\nresponse.files.append(URL(\'static\',\'js/calendar.js\'))\nfor _item in response.meta or []:\n    response.write(\'\\n     <meta name="\', escape=False)\n    response.write(_item)\n    response.write(\'" content="\', escape=False)\n    response.write(response.meta[_item])\n    response.write(\'" />\', escape=False)\n    pass\nfor _k,_file in enumerate(response.files or []):\n    if _file in response.files[:_k]:\n        continue\n    elif _file.lower().endswith(\'.css\'):\n        response.write(\'\\n     <link href="\', escape=False)\n        response.write(_file)\n        response.write(\'" rel="stylesheet" type="text/css" />\', escape=False)\n    elif _file.lower().endswith(\'.js\'):\n        response.write(\'\\n     <script src="\', escape=False)\n        response.write(_file)\n        response.write(\'" type="text/javascript"></script>\', escape=False)\n        pass\n    pass\nresponse.write(\'\\n\\n<!-- For the less-enabled mobile browsers like Opera Mini -->\\n<link rel="stylesheet" media="handheld" href="\', escape=False)\nresponse.write(URL(\'static\',\'css/handheld.css\'))\nresponse.write(\'">\\n  \\n<script type="text/javascript"><!--\\nfunction popup(url) {\\n  newwindow=window.open(url,\\\'name\\\',\\\'height=400,width=600\\\');\\n  if (window.focus) newwindow.focus();\\n  return false;\\n}\\nfunction collapse(id) { jQuery(\\\'#\\\'+id).slideToggle(); }\\nfunction fade(id,value) { if(value>0) jQuery(\\\'#\\\'+id).hide().fadeIn(\\\'slow\\\'); else jQuery(\\\'#\\\'+id).show().fadeOut(\\\'slow\\\'); }\\nfunction ajax(u,s,t) {\\n    query = \\\'\\\';\\n    if (typeof s == "string") {\\n        d = jQuery(s).serialize();\\n        if(d){ query = d; }\\n    } else {\\n        pcs = [];\\n        for(i=0; i<s.length; i++) {\\n            q = jQuery("[name="+s[i]+"]").serialize();\\n            if(q){pcs.push(q);}\\n        }\\n        if (pcs.length>0){query = pcs.join("&");}\\n    }\\n    jQuery.ajax({type: "POST", url: u, data: query, success: function(msg) { if(t) { if(t==\\\':eval\\\') eval(msg); else jQuery("#" + t).html(msg); } } }); \\n}\\n\\nString.prototype.reverse = function () { return this.split(\\\'\\\').reverse().join(\\\'\\\');};\\nfunction web2py_ajax_init() {\\n  jQuery(\\\'.hidden\\\').hide();\\n  jQuery(\\\'.error\\\').hide().slideDown(\\\'slow\\\');\\n  jQuery(\\\'.flash\\\').click(function() { jQuery(this).fadeOut(\\\'slow\\\'); return false; });\\n  // jQuery(\\\'input[type=submit]\\\').click(function(){var t=jQuery(this);t.hide();t.after(\\\'<input class="submit_disabled" disabled="disabled" type="submit" name="\\\'+t.attr("name")+\\\'_dummy" value="\\\'+t.val()+\\\'">\\\')});\\n  jQuery(\\\'input.integer\\\').keyup(function(){this.value=this.value.reverse().replace(/[^0-9\\\\-]|\\\\-(?=.)/g,\\\'\\\').reverse();});\\n  jQuery(\\\'input.double,input.decimal\\\').keyup(function(){this.value=this.value.reverse().replace(/[^0-9\\\\-\\\\.]|[\\\\-](?=.)|[\\\\.](?=[0-9]*[\\\\.])/g,\\\'\\\').reverse();});\\n  jQuery("input[type=\\\'checkbox\\\'].delete").each(function(){jQuery(this).click(function() { if(this.checked) if(!confirm("\', escape=False)\nresponse.write(T(\'Sure you want to delete this object?\'))\nresponse.write(\'")) this.checked=false; });});\\n  try {jQuery("input.date").focus( function() {Calendar.setup({\\n     inputField:this.id, ifFormat:"\', escape=False)\nresponse.write(T(\'%Y-%m-%d\'))\nresponse.write(\'", showsTime:false\\n  }); }); } catch(e) {};\\n  try { jQuery("input.datetime").focus( function() {Calendar.setup({\\n     inputField:this.id, ifFormat:"\', escape=False)\nresponse.write(T(\'%Y-%m-%d %H:%M:%S\'))\nresponse.write(\'", showsTime: true,timeFormat: "24"\\n  }); }); } catch(e) {};\\n  try { jQuery("input.time").clockpick({\\n      starthour:0, endhour:23, showminutes:true, military:true\\n  }); } catch(e) {};\\n};\\n\\njQuery(document).ready(function() {   \\n   var flash = jQuery(\\\'.flash\\\').html();\\n   if(flash) jQuery(\\\'.flash\\\').html(flash).slideDown(\\\'fast\\\');\\n   web2py_ajax_init();\\n});\\nfunction web2py_trap_form(action,target) {\\n   jQuery(\\\'#\\\'+target+\\\' form\\\').each(function(i){\\n      var form=jQuery(this);\\n      if(!form.hasClass(\\\'no_trap\\\'))\\n        form.submit(function(obj){\\n         jQuery(\\\'.flash\\\').hide().html(\\\'\\\');\\n         web2py_ajax_page(\\\'post\\\',action,form.serialize(),target);\\n         return false;\\n      });\\n   });\\n}\\nfunction web2py_ajax_page(method,action,data,target) {\\n  jQuery.ajax({\\\'type\\\':method,\\\'url\\\':action,\\\'data\\\':data,\\n    \\\'beforeSend\\\':function(xhr) {\\n      xhr.setRequestHeader(\\\'web2py-component-location\\\',document.location);\\n      xhr.setRequestHeader(\\\'web2py-component-element\\\',target);},\\n    \\\'complete\\\':function(xhr,text){\\n      var html=xhr.responseText;\\n      var content=xhr.getResponseHeader(\\\'web2py-component-content\\\'); \\n      var command=xhr.getResponseHeader(\\\'web2py-component-command\\\');\\n      var flash=xhr.getResponseHeader(\\\'web2py-component-flash\\\');\\n      var t = jQuery(\\\'#\\\'+target);\\n      if(content==\\\'prepend\\\') t.prepend(html); \\n      else if(content==\\\'append\\\') t.append(html);\\n      else if(content!=\\\'hide\\\') t.html(html);  \\n      web2py_trap_form(action,target);\\n      web2py_ajax_init();      \\n      if(command) eval(command);\\n      if(flash) jQuery(\\\'.flash\\\').html(flash).slideDown(\\\'fast\\\');\\n      }\\n    });\\n}\\nfunction web2py_component(action,target) {\\n    jQuery(document).ready(function(){ web2py_ajax_page(\\\'get\\\',action,null,target); });\\n}\\n//--></script>\\n\', escape=False)\nresponse.write(\'\\n\\n    \', escape=False)\n#using sidebars need to know what sidebar you want to use\n#prior of using it, because of static width size of content, you can use\n#left_sidebar, right_sidebar, both or none (False left and right)\nleft_sidebar_enabled = globals().get(\'left_sidebar_enabled\',False)\nright_sidebar_enabled = globals().get(\'right_sidebar_enabled\',False)\nif left_sidebar_enabled and right_sidebar_enabled: width_content=\'63%\'\nelif left_sidebar_enabled != right_sidebar_enabled: width_content=\'740px\'\nelse: width_content=\'100%\'\nif left_sidebar_enabled: left_sidebar_style = \'style="display: block;"\'\nelse: left_sidebar_style = \'style="display: none;"\'\nif right_sidebar_enabled: right_sidebar_style = \'style="display: block;"\'\nelse: right_sidebar_style = \'style="display: none;"\'\nstyle_content = \'style="width: %s"\' % width_content\nresponse.write(\'\\n  </head>\\n  \\n  <!-- paulirish.com/2008/conditional-stylesheets-vs-css-hacks-answer-neither/ -->\\t\\n  <!--[if lt IE 7 ]> <body class="ie6"> <![endif]-->\\n  <!--[if IE 7 ]>    <body class="ie7"> <![endif]-->\\n  <!--[if IE 8 ]>    <body class="ie8"> <![endif]-->\\n  <!--[if IE 9 ]>    <body class="ie9"> <![endif]-->\\n  <!--[if (gt IE 9)|!(IE)]><!--> <body> <!--<![endif]-->\\n    \\n    <div class="flash">\', escape=False)\nresponse.write(response.flash or \'\')\nresponse.write(\'</div> <!-- notification div -->\\n    \\n    <div id="container">\\t      \\t\\t      \\t\\n      \\n      <div id="wrapper">\\t\\t\\n\\t\\n\\t<div id="header"> <!-- header and login nav -->\\n\\t  \', escape=False)\nresponse.write(\' <!-- this is default header -->\\n\\t  \', escape=False)\ntry:\n    response.write(auth.navbar(action=URL(request.application,\'default\',\'user\')))\nexcept:pass\nresponse.write(\'\\t\\t          \\n\\t  <div id="logo"><!-- put your logo here --></div>\\n\\t  <div style="clear: both;"></div><!-- Clear the divs -->\\n\\t  \', escape=False)\nresponse.write(\'\\t\\t\\t\\t  \\t\\t\\t\\t\\t  \\n\\t</div><!-- header  -->\\n\\t\\n\\t<div id="statusbar"><!-- statusbar is menu zone -->\\n\\t  \', escape=False)\nresponse.write(\' <!-- this is default statusbar -->\\n\\t  \', escape=False)\n#------ superfish menu ------\nresponse.write(\'\\n\\t  \', escape=False)\nresponse.write(MENU(response.menu,_class=\'sf-menu\'))\nresponse.write(\'\\n\\t  <script type="text/javascript">\\n\\t    jQuery(document).ready(function(){\\n\\t    jQuery(\\\'ul.sf-menu\\\').superfish();});\\n\\t  </script>\\n\\t  <div style="clear: both;"></div><!-- Clear the divs -->\\t\\n\\t  \', escape=False)\nresponse.write(\'\\t\\t\\t\\t\\n\\t</div><!-- statusbar -->\\n\\t\\n\\t<div id="page"> <!-- Here my central body -->\\t  \\n\\n\\t  \', escape=False)\nif left_sidebar:\n    response.write(\'\\n          <div id="left_sidebar" \', escape=False)\n    response.write(XML(left_sidebar_style))\n    response.write(\' >\\n            <div style="padding: 4px;">\\n\\t      \', escape=False)\n    response.write(\'Hello world\', escape=False)\n    response.write(\'\\t\\t  \\n            </div>\\n          </div><!-- left_sidebar -->\\n\\t  \', escape=False)\n    pass\nresponse.write(\'\\n\\n\\t  <!-- content -->\\n\\t  <div id="content" \', escape=False)\nresponse.write(XML(style_content))\nresponse.write(\' >\\n\\t    \', escape=False)\nresponse.write(\'\\n\\n\', escape=False)\nif \'message\' in globals():\n    response.write(H2(message))\nelse:\n    response.write(BEAUTIFY(response._vars))\n    pass\nresponse.write(\'\\t\\n\\n<h1>Readme</h1>\\n<ul>\\n  <li>\', escape=False)\nresponse.write(T(\'You are successfully running web2py\'))\nresponse.write(\'</li>\\n  <li>\', escape=False)\nresponse.write(T(\'This is a copy of the scaffolding application\'))\nresponse.write(\'</li>\\n  <li>\', escape=False)\nresponse.write(T(\'You can modify this application and adapt it to your needs\'))\nresponse.write(\'</li>\\n  <li>\', escape=False)\nresponse.write(A(B(T("click here for the administrative interface")), _href=URL(\'admin\',\'default\',\'index\')))\nresponse.write(\'</li>\\n  <li>\', escape=False)\nresponse.write(A(T("click here for online examples"), _href=URL(\'examples\',\'default\',\'index\')))\nresponse.write(\'</li>\\n  <li><a href="http://web2py.com">web2py.com</a></li>\\n  <li><a href="http://web2py.com/book">\', escape=False)\nresponse.write(T(\'documentation\'))\nresponse.write(\'</a></li>\\n</ul>\\n\\n<ol>\\n  <li>\', escape=False)\nresponse.write(T(\'You visited the url\'))\nresponse.write(\' \', escape=False)\nresponse.write(A(request.env.path_info,_href=request.env.path_info))\nresponse.write(\'</li>\\n  <li>\', escape=False)\nresponse.write(T(\'Which called the function\'))\nresponse.write(\' \', escape=False)\nresponse.write(A(request.function+\'()\',_href=\'#\'))\nresponse.write(\' \', escape=False)\nresponse.write(T(\'located in the file\'))\nresponse.write(\'\\n    \', escape=False)\nresponse.write(A(\'web2py/applications/%(application)s/controllers/%(controller)s.py\'%request,_href=URL(\'admin\',\'default\',\'peek\',args=(request.application,\'controllers\',request.controller+\'.py\'))))\nresponse.write(\'</li>\\n  <li>\', escape=False)\nresponse.write(T(\'The output of the file is a dictionary that was rendered by the view\'))\nresponse.write(\'\\n    \', escape=False)\nresponse.write(A(\'web2py/applications/%(application)s/views/%(controller)s/index.html\'%request,_href=URL(\'admin\',\'default\',\'peek\',args=(request.application,\'views\',request.controller,\'index.html\'))))\nresponse.write(\'</li>\\n</ol>\\n\\n\', escape=False)\nresponse.write(\'\\n\', escape=False)\nresponse.write(\'\\n\', escape=False)\nresponse.write(\'\\t\\n\\t  </div>\\n\\t  <!-- content -->\\n\\n\\t  \', escape=False)\nif right_sidebar:\n    response.write(\'\\n          <div id="right_sidebar" \', escape=False)\n    response.write(XML(right_sidebar_style))\n    response.write(\' >\\n            <div style="padding: 4px;">\\n              \', escape=False)\n    response.write(\'Hello world\', escape=False)\n    response.write(\'\\n            </div>\\n\\t  </div><!-- right_sidebar -->\\n          \', escape=False)\n    pass\nresponse.write(\'\\n\\n\\n\\t  <div style="clear: both;"></div><!-- Clear the divs -->\\n\\t  \\n\\t</div><!-- page -->\\t\\t\\t\\t\\t\\t\\t\\n\\t\\n\\t<div id="footer">\\n\\t  \', escape=False)\nresponse.write(\' <!-- this is default footer -->\\n\\t  <a href="http://www.web2py.com/" style="float: left; padding-right: 6px;">\\n\\t    <img src="\', escape=False)\nresponse.write(URL(request.application,\'static\',\'images/poweredby.png\'))\nresponse.write(\'"/>\\n\\t  </a>\\n\\t  \', escape=False)\nresponse.write(T(\'Copyright\'))\nresponse.write(\' &#169; 2010\\t\\t\\t\\t\\n\\t  <div style="clear: both;"></div><!-- Clear the divs -->\\n\\t  \', escape=False)\nresponse.write(\'\\n\\n\\t</div><!-- footer -->\\t\\t\\t\\n      </div><!-- wrapper -->\\n    </div><!-- container -->\\t\\t\\n    \\n    <!--[if lt IE 7 ]>\\n\\t<script src="js/libs/dd_belatedpng.js"></script>\\n\\t<script> DD_belatedPNG.fix(\\\'img, .png_bg\\\'); //fix any <img> or .png_bg background-images </script>\\n\\t<![endif]-->\\n    \\n    <!-- asynchronous google analytics: mathiasbynens.be/notes/async-analytics-snippet \\n\\t change the UA-XXXXX-X to be your site\\\'s ID -->\\n    <!--   \\n\\t   <script>\\n\\t     var _gaq = [[\\\'_setAccount\\\', \\\'UA-XXXXX-X\\\'], [\\\'_trackPageview\\\']];\\n\\t     (function(d, t) {\\n\\t     var g = d.createElement(t),\\n\\t     s = d.getElementsByTagName(t)[0];\\n\\t     g.async = true;\\n\\t     g.src = \\\'//www.google-analytics.com/ga.js\\\';\\n\\t     s.parentNode.insertBefore(g, s);\\n\\t     })(document, \\\'script\\\');\\n\\t   </script>\\n\\t   -->    \\n  </body>\\n</html>\\n\', escape=False)'
p6
sS'snapshot'
p7
(dp8
S'exception'
p9
(dp10
S'__hash__'
p11
S"<method-wrapper '__hash__' of exceptions.NameError object at 0x65f620>"
p12
sS'__setattr__'
p13
S"<method-wrapper '__setattr__' of exceptions.NameError object at 0x65f620>"
p14
sS'__reduce_ex__'
p15
S'<built-in method __reduce_ex__ of exceptions.NameError object at 0x65f620>'
p16
sS'__getslice__'
p17
S"<method-wrapper '__getslice__' of exceptions.NameError object at 0x65f620>"
p18
sS'__getitem__'
p19
S"<method-wrapper '__getitem__' of exceptions.NameError object at 0x65f620>"
p20
sS'__setstate__'
p21
S'<built-in method __setstate__ of exceptions.NameError object at 0x65f620>'
p22
sS'__reduce__'
p23
S'<built-in method __reduce__ of exceptions.NameError object at 0x65f620>'
p24
sS'__str__'
p25
S"<method-wrapper '__str__' of exceptions.NameError object at 0x65f620>"
p26
sS'args'
p27
S'("name \'left_sidebar\' is not defined",)'
p28
sS'__getattribute__'
p29
S"<method-wrapper '__getattribute__' of exceptions.NameError object at 0x65f620>"
p30
sS'__class__'
p31
S"<type 'exceptions.NameError'>"
p32
sS'__delattr__'
p33
S"<method-wrapper '__delattr__' of exceptions.NameError object at 0x65f620>"
p34
sS'__repr__'
p35
S"<method-wrapper '__repr__' of exceptions.NameError object at 0x65f620>"
p36
sS'__dict__'
p37
S'{}'
p38
sS'__doc__'
p39
S"'Name not found globally.'"
p40
sS'__init__'
p41
S"<method-wrapper '__init__' of exceptions.NameError object at 0x65f620>"
p42
sS'__new__'
p43
S'<built-in method __new__ of type object at 0xdbfc0>'
p44
ssS'evalue'
p45
S"name 'left_sidebar' is not defined"
p46
sS'request'
p47
(dp48
S'function'
p49
S"'index'"
p50
sS'body'
p51
S'<cStringIO.StringO object at 0x224d860>'
p52
sS'wsgi'
p53
S"<Storage {'start_response': <function <lambda> a...ING': 'gzip,deflate', 'HTTP_KEEP_ALIVE': '115'}}>"
p54
sS'extension'
p55
S"'html'"
p56
sS'vars'
p57
S'<Storage {}>'
p58
sS'cid'
p59
S'None'
p60
sS'url'
p61
S'<gluon.html.XML object at 0x672650>'
p62
sg27
S'[]'
p63
sS'controller'
p64
S"'default'"
p65
sS'cookies'
p66
S"<SimpleCookie: session_id_4d='127-0-0-1-3b02a7b4...'127-0-0-1-9f6a6da2-ec8d-4baf-b64c-7e34b84a5699'>"
p67
sS'application'
p68
S"'welcome'"
p69
sS'ajax'
p70
S'False'
p71
sS'client'
p72
S"'127.0.0.1'"
p73
sS'env'
p74
S"<Storage {'http_user_agent': 'Mozilla/5.0 (Macin...te', 'query_string': '', 'wsgi_run_once': False}>"
p75
sS'raw_args'
p76
S'None'
p77
sS'get_vars'
p78
S'<Storage {}>'
p79
sS'folder'
p80
S"'/Users/mdipierro/web2py/applications/welcome/'"
p81
sS'now'
p82
S'datetime.datetime(2010, 11, 2, 23, 15, 37, 671082)'
p83
sS'post_vars'
p84
S'<Storage {}>'
p85
ssS'frames'
p86
(lp87
(dp88
S'file'
p89
S'/Users/mdipierro/web2py/gluon/restricted.py'
p90
sS'dump'
p91
(dp92
S'environment'
p93
S"{'A': <class 'gluon.html.A'>, 'Auth': <class 'gluon.tools.Auth'>, 'B': <class 'gluon.html.B'>, 'BEAUTIFY': <class 'gluon.html.BEAUTIFY'>, 'BODY': <class 'gluon.html.BODY'>, 'BR': <class 'gluon.html.BR'>, 'CENTER': <class 'gluon.html.CENTER'>, 'CLEANUP': <class 'gluon.validators.CLEANUP'>, 'CODE': <class 'gluon.html.CODE'>, 'CRYPT': <class 'gluon.validators.CRYPT'>, ...}"
p94
sS'ccode'
p95
S'<code object <module> at 0x7b17b8, file "/Users/...ations/welcome/views/default/index.html", line 1>'
p96
ssS'lnum'
p97
I188
sS'lines'
p98
(dp99
I192
S'        # XXX Show exception in Wing IDE if running in debugger'
p100
sI183
S'        if type(code) == types.CodeType:'
p101
sI184
S'            ccode = code'
p102
sI185
S'        else:'
p103
sI186
S'            ccode = compile2(code,layer)'
p104
sI187
S''
sI188
S'        exec ccode in environment'
p105
sI189
S'    except HTTP:'
p106
sI190
S'        raise'
p107
sI191
S'    except Exception:'
p108
ssS'call'
p109
S'(code="left_sidebar_enabled=True\\nresponse.write(\'\\\\n\', e...t   -->    \\\\n  </body>\\\\n</html>\\\\n\', escape=False)", environment={\'A\': <class \'gluon.html.A\'>, \'Auth\': <class \'gluon.tools.Auth\'>, \'B\': <class \'gluon.html.B\'>, \'BEAUTIFY\': <class \'gluon.html.BEAUTIFY\'>, \'BODY\': <class \'gluon.html.BODY\'>, \'BR\': <class \'gluon.html.BR\'>, \'CENTER\': <class \'gluon.html.CENTER\'>, \'CLEANUP\': <class \'gluon.validators.CLEANUP\'>, \'CODE\': <class \'gluon.html.CODE\'>, \'CRYPT\': <class \'gluon.validators.CRYPT\'>, ...}, layer=\'/Users/mdipierro/web2py/applications/welcome/views/default/index.html\')'
p110
sS'func'
p111
S'restricted'
p112
sa(dp113
g89
S'/Users/mdipierro/web2py/applications/welcome/views/default/index.html'
p114
sg91
(dp115
sg97
I91
sg98
(dp116
I96
S"    response.write('\\t\\t  \\n            </div>\\n          </div><!-- left_sidebar -->\\n\\t  ', escape=False)"
p117
sI97
S'    pass'
p118
sI98
S'response.write(\'\\n\\n\\t  <!-- content -->\\n\\t  <div id="content" \', escape=False)'
p119
sI99
S'response.write(XML(style_content))'
p120
sI100
S"response.write(' >\\n\\t    ', escape=False)"
p121
sI101
S"response.write('\\n\\n', escape=False)"
p122
sI82
S'except:pass'
p123
sI83
S'response.write(\'\\t\\t          \\n\\t  <div id="logo"><!-- put your logo here --></div>\\n\\t  <div style="clear: both;"></div><!-- Clear the divs -->\\n\\t  \', escape=False)'
p124
sI84
S'response.write(\'\\t\\t\\t\\t  \\t\\t\\t\\t\\t  \\n\\t</div><!-- header  -->\\n\\t\\n\\t<div id="statusbar"><!-- statusbar is menu zone -->\\n\\t  \', escape=False)'
p125
sI85
S"response.write(' <!-- this is default statusbar -->\\n\\t  ', escape=False)"
p126
sI86
S'#------ superfish menu ------'
p127
sI87
S"response.write('\\n\\t  ', escape=False)"
p128
sI88
S"response.write(MENU(response.menu,_class='sf-menu'))"
p129
sI89
S'response.write(\'\\n\\t  <script type="text/javascript">\\n\\t    jQuery(document).ready(function(){\\n\\t    jQuery(\\\'ul.sf-menu\\\').superfish();});\\n\\t  </script>\\n\\t  <div style="clear: both;"></div><!-- Clear the divs -->\\t\\n\\t  \', escape=False)'
p130
sI90
S'response.write(\'\\t\\t\\t\\t\\n\\t</div><!-- statusbar -->\\n\\t\\n\\t<div id="page"> <!-- Here my central body -->\\t  \\n\\n\\t  \', escape=False)'
p131
sI91
S'if left_sidebar:'
p132
sI92
S'    response.write(\'\\n          <div id="left_sidebar" \', escape=False)'
p133
sI93
S'    response.write(XML(left_sidebar_style))'
p134
sI94
S'    response.write(\' >\\n            <div style="padding: 4px;">\\n\\t      \', escape=False)'
p135
sI95
S"    response.write('Hello world', escape=False)"
p136
ssg109
S'()'
p137
sg111
S'<module>'
p138
sasS'pyver'
p139
S'Python 2.5.4: /usr/bin/python2.5'
p140
sS'session'
p141
(dp142
S'_formkey[register]'
p143
S"'c6930f6e-20fc-4bf6-b087-460ba08a60f4'"
p144
sS'auth'
p145
S'None'
p146
ssS'etype'
p147
S"<type 'exceptions.NameError'>"
p148
sS'date'
p149
S'Tue Nov  2 23:15:37 2010'
p150
sS'response'
p151
(dp152
S'status'
p153
S'200'
p154
sg51
S'<cStringIO.StringO object at 0x65d320>'
p155
sg66
S"<SimpleCookie: session_id_welcome='127-0-0-1-f17915d3-315e-4938-ba0a-0d0119ec55dd'>"
p156
sS'_vars'
p157
S"{'message': <lazyT 'Hello World'>}"
p158
sS'title'
p159
S"'welcome'"
p160
sS'session_file'
p161
S"<open file '/Users/mdipierro/web2py/applications...-4938-ba0a-0d0119ec55dd', mode 'rb+' at 0x7b1c80>"
p162
sS'flash'
p163
S"<lazyT 'You are successfully running web2py.'>"
p164
sS'_custom_rollback'
p165
S'None'
p166
sS'session_id'
p167
S"'127-0-0-1-f17915d3-315e-4938-ba0a-0d0119ec55dd'"
p168
sS'headers'
p169
S"<Storage {'Expires': 'Wed, 03 Nov 2010 04:15:37 ...he, must-revalidate, post-check=0, pre-check=0'}>"
p170
sS'meta'
p171
S"<Storage {'keywords': 'web2py, python, framework... 'Web2py Enterprise Framework', 'author': 'you'}>"
p172
sS'session_filename'
p173
S"'/Users/mdipierro/web2py/applications/welcome/sessions/127-0-0-1-f17915d3-315e-4938-ba0a-0d0119ec55dd'"
p174
sS'postprocessing'
p175
S'[]'
p176
sS'menu'
p177
S"[(<lazyT 'Home'>, False, <gluon.html.XML object at 0x63b850>, []), (<lazyT 'This App'>, False, <gluon.html.XML object at 0x63be90>, [(<lazyT 'Controller'>, False, <gluon.html.XML object at 0x63bcb0>), (<lazyT 'View'>, False, <gluon.html.XML object at 0x63b0d0>), (<lazyT 'Layout'>, False, <gluon.html.XML object at 0x66e390>), (<lazyT 'Stylesheet'>, False, <gluon.html.XML object at 0x66ef30>), (<lazyT 'DB Model'>, False, <gluon.html.XML object at 0x66ea90>), (<lazyT 'Menu Model'>, False, <gluon.html.XML object at 0x66e610>), (<lazyT 'Database'>, False, <gluon.html.XML object at 0x65d390>), (<lazyT 'Errors'>, False, <gluon.html.XML object at 0x65d910>), (<lazyT 'About'>, False, <gluon.html.XML object at 0x65d250>)]), (<lazyT 'Resources'>, False, 'http://www.web2py.com/book', [(<lazyT 'Documentation'>, False, 'http://www.web2py.com/book', [(<lazyT 'Preface'>, False, 'http://www.web2py.com/book/default/chapter/00'), (<lazyT 'Introduction'>, False, 'http://www.web2py.com/book/default/chapter/01'), (<lazyT 'Python'>, False, 'http://www.web2py.com/book/default/chapter/02'), (<lazyT 'Overview'>, False, 'http://www.web2py.com/book/default/chapter/03'), (<lazyT 'The Core'>, False, 'http://www.web2py.com/book/default/chapter/04'), (<lazyT 'The Views'>, False, 'http://www.web2py.com/book/default/chapter/05'), (<lazyT 'Database'>, False, 'http://www.web2py.com/book/default/chapter/06'), (<lazyT 'Forms and Validators'>, False, 'http://www.web2py.com/book/default/chapter/07'), (<lazyT 'Access Control'>, False, 'http://www.web2py.com/book/default/chapter/08'), (<lazyT 'Services'>, False, 'http://www.web2py.com/book/default/chapter/09'), (<lazyT 'Ajax Recipes'>, False, 'http://www.web2py.com/book/default/chapter/10'), (<lazyT 'Deployment Recipes'>, False, 'http://www.web2py.com/book/default/chapter/11'), (<lazyT 'Other Recipes'>, False, 'http://www.web2py.com/book/default/chapter/12'), (<lazyT 'Buy this book'>, False, 'http://stores.lulu.com/web2py')]), (<lazyT 'Community'>, False, 'http://www.web2py.com/examples/default/usergroups', [(<lazyT 'Groups'>, False, 'http://www.web2py.com/examples/default/usergroups'), (<lazyT 'Twitter'>, False, 'http://twitter.com/web2py'), (<lazyT 'Live chat'>, False, 'http://mibbit.com/?channel=%23web2py&server=irc.mibbit.net'), (<lazyT 'User Voice'>, False, 'http://web2py.uservoice.com/')]), (<lazyT 'Web2py'>, False, 'http://www.web2py.com', [(<lazyT 'Download'>, False, 'http://www.web2py.com/examples/default/download'), (<lazyT 'Support'>, False, 'http://www.web2py.com/examples/default/support'), (<lazyT 'Quick Examples'>, False, 'http://web2py.com/examples/default/examples'), (<lazyT 'FAQ'>, False, 'http://web2py.com/AlterEgo'), (<lazyT 'Free Applications'>, False, 'http://web2py.com/appliances'), (<lazyT 'Plugins'>, False, 'http://web2py.com/plugins'), (<lazyT 'Recipes'>, False, 'http://web2pyslices.com/'), (<lazyT 'Demo'>, False, 'http://web2py.com/demo_admin'), (<lazyT 'Semantic'>, False, 'http://web2py.com/semantic'), (<lazyT 'Layouts'>, False, 'http://web2py.com/layouts'), (<lazyT 'Videos'>, False, 'http://www.web2py.com/examples/default/videos/')])])]"
p178
sS'_view_environment'
p179
S"{'A': <class 'gluon.html.A'>, 'Auth': <class 'gluon.tools.Auth'>, 'B': <class 'gluon.html.B'>, 'BEAUTIFY': <class 'gluon.html.BEAUTIFY'>, 'BODY': <class 'gluon.html.BODY'>, 'BR': <class 'gluon.html.BR'>, 'CENTER': <class 'gluon.html.CENTER'>, 'CLEANUP': <class 'gluon.validators.CLEANUP'>, 'CODE': <class 'gluon.html.CODE'>, 'CRYPT': <class 'gluon.validators.CRYPT'>, ...}"
p180
sS'subtitle'
p181
S"<lazyT 'customize me!'>"
p182
sS'session_id_name'
p183
S"'session_id_welcome'"
p184
sS'_custom_commit'
p185
S'None'
p186
sS'_caller'
p187
S'<function <lambda> at 0x744bf0>'
p188
sS'files'
p189
S'[<gluon.html.XML object at 0x225bb70>, <gluon.html.XML object at 0x225bbb0>, <gluon.html.XML object at 0x225bc30>, <gluon.html.XML object at 0x225bbd0>, <gluon.html.XML object at 0x225bbf0>]'
p190
sS'view'
p191
S"'default/index.html'"
p192
ssS'locals'
p193
(dp194
S'Service'
p195
S'<class gluon.tools.Service at 0x71ff90>'
p196
sS'OBJECT'
p197
S"<class 'gluon.html.OBJECT'>"
p198
sS'_file'
p199
S'<gluon.html.XML object at 0x225bbf0>'
p200
sS'SQLDB'
p201
S"<class 'gluon.sql.SQLDB'>"
p202
sg141
S"<Storage {'_formkey[register]': 'c6930f6e-20fc-4bf6-b087-460ba08a60f4', 'auth': None}>"
p203
sS'LINK'
p204
S"<class 'gluon.html.LINK'>"
p205
sS'BR'
p206
S"<class 'gluon.html.BR'>"
p207
sS'local_import'
p208
S'<function <lambda> at 0x7aa9f0>'
p209
sS'OPTGROUP'
p210
S"<class 'gluon.html.OPTGROUP'>"
p211
sS'PRE'
p212
S"<class 'gluon.html.PRE'>"
p213
sS'IS_INT_IN_RANGE'
p214
S"<class 'gluon.validators.IS_INT_IN_RANGE'>"
p215
sS'left_sidebar_enabled'
p216
S'True'
p217
sS'IS_LOWER'
p218
S"<class 'gluon.validators.IS_LOWER'>"
p219
sS'IS_STRONG'
p220
S"<class 'gluon.validators.IS_STRONG'>"
p221
sS'Recaptcha'
p222
S"<class 'gluon.tools.Recaptcha'>"
p223
sS'cache'
p224
S'<gluon.cache.Cache object at 0x7bd110>'
p225
sS'IS_IN_DB'
p226
S"<class 'gluon.validators.IS_IN_DB'>"
p227
sS'TAG'
p228
S'<gluon.html.__TAG__ object at 0x11e2b50>'
p229
sS'_k'
p230
S'4'
sS'SQLField'
p231
S"<class 'gluon.sql.Field'>"
p232
sS'mail'
p233
S'<gluon.tools.Mail object at 0x1005050>'
p234
sS'BODY'
p235
S"<class 'gluon.html.BODY'>"
p236
sS'IS_DATE_IN_RANGE'
p237
S"<class 'gluon.validators.IS_DATE_IN_RANGE'>"
p238
sS'TH'
p239
S"<class 'gluon.html.TH'>"
p240
sS'URL'
p241
S'<function _URL at 0x7aabb0>'
p242
sS'db'
p243
S"<SQLDB {'_connection': <sqlite3.Connection objec...0x102fb70>}>, '_migrate': True, '_pool_size': 0}>"
p244
sS'auth'
p245
S'<gluon.tools.Auth object at 0x10053d0>'
p246
sS'P'
S"<class 'gluon.html.P'>"
p247
sS'TFOOT'
p248
S"<class 'gluon.html.TFOOT'>"
p249
sS'XHTML'
p250
S"<class 'gluon.html.XHTML'>"
p251
sS'ON'
p252
g217
sS'OL'
p253
S"<class 'gluon.html.OL'>"
p254
sS'TEXTAREA'
p255
S"<class 'gluon.html.TEXTAREA'>"
p256
sS'MENU'
p257
S"<class 'gluon.html.MENU'>"
p258
sS'LOAD'
p259
S'<gluon.compileapp.LoadFactory instance at 0x643490>'
p260
sS'CODE'
p261
S"<class 'gluon.html.CODE'>"
p262
sS'HTTP'
p263
S"<class 'gluon.http.HTTP'>"
p264
sS'HR'
p265
S"<class 'gluon.html.HR'>"
p266
sS'IS_DATETIME'
p267
S"<class 'gluon.validators.IS_DATETIME'>"
p268
sS'HEAD'
p269
S"<class 'gluon.html.HEAD'>"
p270
sS'LABEL'
p271
S"<class 'gluon.html.LABEL'>"
p272
sS'CLEANUP'
p273
S"<class 'gluon.validators.CLEANUP'>"
p274
sS'plugins'
p275
S'<gluon.tools.PluginManager object at 0x641d50>'
p276
sS'SELECT'
p277
S"<class 'gluon.html.SELECT'>"
p278
sS'CENTER'
p279
S"<class 'gluon.html.CENTER'>"
p280
sS'left_sidebar_style'
p281
S'\'style="display: block;"\''
p282
sS'Crud'
p283
S"<class 'gluon.tools.Crud'>"
p284
sS'Auth'
p285
S"<class 'gluon.tools.Auth'>"
p286
sS'__builtins__'
p287
S"{'ArithmeticError': <type 'exceptions.ArithmeticError'>, 'AssertionError': <type 'exceptions.AssertionError'>, 'AttributeError': <type 'exceptions.AttributeError'>, 'BaseException': <type 'exceptions.BaseException'>, 'DeprecationWarning': <type 'exceptions.DeprecationWarning'>, 'EOFError': <type 'exceptions.EOFError'>, 'Ellipsis': Ellipsis, 'EnvironmentError': <type 'exceptions.EnvironmentError'>, 'Exception': <type 'exceptions.Exception'>, 'False': False, ...}"
p288
sS'IS_LIST_OF'
p289
S"<class 'gluon.validators.IS_LIST_OF'>"
p290
sS'SQLFORM'
p291
S"<class 'gluon.sqlhtml.SQLFORM'>"
p292
sS'_item'
p293
S"'author'"
p294
sS'EM'
p295
S"<class 'gluon.html.EM'>"
p296
sS'redirect'
p297
S'<function redirect at 0x45cd30>'
p298
sS'FIELDSET'
p299
S"<class 'gluon.html.FIELDSET'>"
p300
sS'IS_EQUAL_TO'
p301
S"<class 'gluon.validators.IS_EQUAL_TO'>"
p302
sS'embed64'
p303
S'<function embed64 at 0x10e07f0>'
p304
sS'INPUT'
p305
S"<class 'gluon.html.INPUT'>"
p306
sS'EMBED'
p307
S"<class 'gluon.html.EMBED'>"
p308
sS'FORM'
p309
S"<class 'gluon.html.FORM'>"
p310
sS'width_content'
p311
S"'63%'"
p312
sS'H2'
p313
S"<class 'gluon.html.H2'>"
p314
sS'H3'
p315
S"<class 'gluon.html.H3'>"
p316
sS'H1'
p317
S"<class 'gluon.html.H1'>"
p318
sS'H6'
p319
S"<class 'gluon.html.H6'>"
p320
sS'H4'
p321
S"<class 'gluon.html.H4'>"
p322
sS'H5'
p323
S"<class 'gluon.html.H5'>"
p324
sS'UL'
p325
S"<class 'gluon.html.UL'>"
p326
sS'IS_UPPER'
p327
S"<class 'gluon.validators.IS_UPPER'>"
p328
sS'xmlescape'
p329
S'<function xmlescape at 0x10cb670>'
p330
sS'IS_TIME'
p331
S"<class 'gluon.validators.IS_TIME'>"
p332
sS'OPTION'
p333
S"<class 'gluon.html.OPTION'>"
p334
sS'TITLE'
p335
S"<class 'gluon.html.TITLE'>"
p336
sS'CRYPT'
p337
S"<class 'gluon.validators.CRYPT'>"
p338
sS'IS_EMPTY_OR'
p339
S"<class 'gluon.validators.IS_EMPTY_OR'>"
p340
sS'MARKMIN'
p341
S"<class 'gluon.html.MARKMIN'>"
p342
sS'message'
p343
S"<lazyT 'Hello World'>"
p344
sS'service'
p345
S'<gluon.tools.Service instance at 0x6437d8>'
p346
sS'SCRIPT'
p347
S"<class 'gluon.html.SCRIPT'>"
p348
sS'geocode'
p349
S'<function geocode at 0x7353b0>'
p350
sS'TABLE'
p351
S"<class 'gluon.html.TABLE'>"
p352
sS'IS_IPV4'
p353
S"<class 'gluon.validators.IS_IPV4'>"
p354
sS'IS_LENGTH'
p355
S"<class 'gluon.validators.IS_LENGTH'>"
p356
sS'XML'
p357
S"<class 'gluon.html.XML'>"
p358
sS'B'
S"<class 'gluon.html.B'>"
p359
sS'IMG'
p360
S"<class 'gluon.html.IMG'>"
p361
sS'SQLTABLE'
p362
S"<class 'gluon.sqlhtml.SQLTABLE'>"
p363
sS'IS_MATCH'
p364
S"<class 'gluon.validators.IS_MATCH'>"
p365
sS'IS_ALPHANUMERIC'
p366
S"<class 'gluon.validators.IS_ALPHANUMERIC'>"
p367
sS'SPAN'
p368
S"<class 'gluon.html.SPAN'>"
p369
sS'IS_SLUG'
p370
S"<class 'gluon.validators.IS_SLUG'>"
p371
sS'BEAUTIFY'
p372
S"<class 'gluon.html.BEAUTIFY'>"
p373
sS'META'
p374
S"<class 'gluon.html.META'>"
p375
sS'fetch'
p376
S'<function fetch at 0x7307f0>'
p377
sS'IS_DATE'
p378
S"<class 'gluon.validators.IS_DATE'>"
p379
sS'IS_EMAIL'
p380
S"<class 'gluon.validators.IS_EMAIL'>"
p381
sS'IS_NOT_EMPTY'
p382
S"<class 'gluon.validators.IS_NOT_EMPTY'>"
p383
sg47
S"<Storage {'function': 'index', 'body': <cStringI... 23, 15, 37, 671082), 'post_vars': <Storage {}>}>"
p384
sS'TBODY'
p385
S"<class 'gluon.html.TBODY'>"
p386
sS'Field'
p387
S"<class 'gluon.sql.Field'>"
p388
sS'Mail'
p389
S"<class 'gluon.tools.Mail'>"
p390
sS'DIV'
p391
S"<class 'gluon.html.DIV'>"
p392
sS'LEGEND'
p393
S"<class 'gluon.html.LEGEND'>"
p394
sS'DAL'
p395
S'<function DAL at 0x7583b0>'
p396
sS'TT'
p397
S"<class 'gluon.html.TT'>"
p398
sS'TR'
p399
S"<class 'gluon.html.TR'>"
p400
sS'LI'
p401
S"<class 'gluon.html.LI'>"
p402
sS'right_sidebar_enabled'
p403
g217
sS'IFRAME'
p404
S"<class 'gluon.html.IFRAME'>"
p405
sS'TD'
p406
S"<class 'gluon.html.TD'>"
p407
sS'PluginManager'
p408
S"<class 'gluon.tools.PluginManager'>"
p409
sS'IS_URL'
p410
S"<class 'gluon.validators.IS_URL'>"
p411
sS'A'
S"<class 'gluon.html.A'>"
p412
sS'STYLE'
p413
S"<class 'gluon.html.STYLE'>"
p414
sS'IS_DATETIME_IN_RANGE'
p415
S"<class 'gluon.validators.IS_DATETIME_IN_RANGE'>"
p416
sS'HTML'
p417
S"<class 'gluon.html.HTML'>"
p418
sS'IS_IMAGE'
p419
S"<class 'gluon.validators.IS_IMAGE'>"
p420
sS'I'
S"<class 'gluon.html.I'>"
p421
sS'crud'
p422
S'<gluon.tools.Crud object at 0x22473b0>'
p423
sS'right_sidebar_style'
p424
S'\'style="display: block;"\''
p425
sS'IS_NOT_IN_DB'
p426
S"<class 'gluon.validators.IS_NOT_IN_DB'>"
p427
sg151
S"<Storage {'status': 200, 'body': <cStringIO.Stri...object at 0x225bbf0>], '_custom_rollback': None}>"
p428
sS'THEAD'
p429
S"<class 'gluon.html.THEAD'>"
p430
sS'IS_NULL_OR'
p431
S"<class 'gluon.validators.IS_EMPTY_OR'>"
p432
sS'prettydate'
p433
S'<function prettydate at 0x735a30>'
p434
sS'IS_FLOAT_IN_RANGE'
p435
S"<class 'gluon.validators.IS_FLOAT_IN_RANGE'>"
p436
sS'IS_EXPR'
p437
S"<class 'gluon.validators.IS_EXPR'>"
p438
sS'T'
S'<gluon.languages.translator object at 0x2265990>'
p439
sS'IS_IN_SET'
p440
S"<class 'gluon.validators.IS_IN_SET'>"
p441
sS'IS_UPLOAD_FILENAME'
p442
S"<class 'gluon.validators.IS_UPLOAD_FILENAME'>"
p443
sS'style_content'
p444
S'\'style="width: 63%"\''
p445
sS'IS_DECIMAL_IN_RANGE'
p446
S"<class 'gluon.validators.IS_DECIMAL_IN_RANGE'>"
p447
sssS'traceback'
p448
S'Traceback (most recent call last):\n  File "/Users/mdipierro/web2py/gluon/restricted.py", line 188, in restricted\n    exec ccode in environment\n  File "/Users/mdipierro/web2py/applications/welcome/views/default/index.html", line 91, in <module>\nNameError: name \'left_sidebar\' is not defined\n'
p449
s.